

Microchip Technology PIC LITE Macro Assembler V1.45 build -152302408 
                                                                                               Wed Jun 30 11:25:01 2021

Microchip Technology Omniscient Code Generator v1.45 (Free mode) build 201711160504
     1  0000                     
      + 0000                     
     2                           ; Version 1.45
     3                           ; Generated 16/11/2017 GMT
     4                           
     5                           ; 
     6                           ; Copyright © 2017, Microchip Technology Inc. and its subsidiaries ("Microchip")
     7                           ; All rights reserved.
     8                           ; 
     9                           ; This software is developed by Microchip Technology Inc. and its subsidiaries ("Microch
                                 ip").
    10                           ; 
    11                           ; Redistribution and use in source and binary forms, with or without modification, are
    12                           ; permitted provided that the following conditions are met:
    13                           ; 
    14                           ;     1. Redistributions of source code must retain the above copyright notice, this lis
                                 t of
    15                           ;        conditions and the following disclaimer.
    16                           ; 
    17                           ;     2. Redistributions in binary form must reproduce the above copyright notice, this 
                                 list
    18                           ;        of conditions and the following disclaimer in the documentation and/or other
    19                           ;        materials provided with the distribution.
    20                           ; 
    21                           ;     3. Microchip's name may not be used to endorse or promote products derived from th
                                 is
    22                           ;        software without specific prior written permission.
    23                           ; 
    24                           ; THIS SOFTWARE IS PROVIDED BY MICROCHIP "AS IS" AND ANY EXPRESS OR IMPLIED WARRANTIES,

    25                           ; INCLUDING, BUT NOT LIMITED TO, THE IMPLIED WARRANTIES OF MERCHANTABILITY AND FITNESS F
                                 OR
    26                           ; PURPOSE ARE DISCLAIMED.  IN NO EVENT SHALL MICROCHIP BE LIABLE FOR ANY DIRECT, INDIREC
                                 T,
    27                           ; INCIDENTAL, SPECIAL, EXEMPLARY, OR CONSEQUENTIAL DAMAGES (INCLUDING BUT NOT LIMITED TO
                                 
    28                           ; PROCUREMENT OF SUBSTITUTE GOODS OR SERVICES; LOSS OF USE, DATA OR PROFITS; OR BUSINESS
                                 
    29                           ; INTERRUPTION) HOWSOEVER CAUSED AND ON ANY THEORY OF LIABILITY, WHETHER IN CONTRACT, ST
                                 RICT
    30                           ; LIABILITY, OR TORT (INCLUDING NEGLIGENCE OR OTHERWISE) ARISING IN ANY WAY OUT OF THE U
                                 SE OF
    31                           ; THIS SOFTWARE, EVEN IF ADVISED OF THE POSSIBILITY OF SUCH DAMAGE.
    32                           ; 
    33                           
    34                           
    35                           ; 
    36                           ; Code-generator required, PIC16F887 Definitions
    37                           ; 
    38  0004                     fsr0 equ 04h
    39  0004                     indf equ 00h
    40  0000                     indf0 equ 00h
    41  0000                     pc equ 02h
    42  0002                     pcl equ 02h
    43  0002                     pclath equ 0Ah
    44  000A                     status equ 03h
    45  0003                     
     2                           opt pagewidth 120
     3  0000                     clrz	macro
     4                           	bcf	3,2
     5                           	endm
     6  0000                     setc	macro
     7                           	bsf	3,0
     8                           	endm
     9  0000                     setz	macro
    10                           	bsf	3,2
    11                           	endm
    12  0000                     skipc	macro
    13                           	btfss	3,0
    14                           	endm
    15  0000                     skipz	macro
    16                           	btfss	3,2
    17                           	endm
    18  0000                     skipnc	macro
    19                           	btfsc	3,0
    20                           	endm
    21  0000                     skipnz	macro
    22                           	btfsc	3,2
    23                           	endm
    24  0000                     # 52 "C:\Program Files (x86)\Microchip\xc8\v1.45\include\pic16f887.h"
    25                           INDF equ 00h ;# 
    26  0000                     # 59 "C:\Program Files (x86)\Microchip\xc8\v1.45\include\pic16f887.h"
    27                           TMR0 equ 01h ;# 
    28  0001                     # 66 "C:\Program Files (x86)\Microchip\xc8\v1.45\include\pic16f887.h"
    29                           PCL equ 02h ;# 
    30  0002                     # 73 "C:\Program Files (x86)\Microchip\xc8\v1.45\include\pic16f887.h"
    31                           STATUS equ 03h ;# 
    32  0003                     # 159 "C:\Program Files (x86)\Microchip\xc8\v1.45\include\pic16f887.h"
    33                           FSR equ 04h ;# 
    34  0004                     # 166 "C:\Program Files (x86)\Microchip\xc8\v1.45\include\pic16f887.h"
    35                           PORTA equ 05h ;# 
    36  0005                     # 228 "C:\Program Files (x86)\Microchip\xc8\v1.45\include\pic16f887.h"
    37                           PORTB equ 06h ;# 
    38  0006                     # 290 "C:\Program Files (x86)\Microchip\xc8\v1.45\include\pic16f887.h"
    39                           PORTC equ 07h ;# 
    40  0007                     # 352 "C:\Program Files (x86)\Microchip\xc8\v1.45\include\pic16f887.h"
    41                           PORTD equ 08h ;# 
    42  0008                     # 414 "C:\Program Files (x86)\Microchip\xc8\v1.45\include\pic16f887.h"
    43                           PORTE equ 09h ;# 
    44  0009                     # 452 "C:\Program Files (x86)\Microchip\xc8\v1.45\include\pic16f887.h"
    45                           PCLATH equ 0Ah ;# 
    46  000A                     # 459 "C:\Program Files (x86)\Microchip\xc8\v1.45\include\pic16f887.h"
    47                           INTCON equ 0Bh ;# 
    48  000B                     # 537 "C:\Program Files (x86)\Microchip\xc8\v1.45\include\pic16f887.h"
    49                           PIR1 equ 0Ch ;# 
    50  000C                     # 593 "C:\Program Files (x86)\Microchip\xc8\v1.45\include\pic16f887.h"
    51                           PIR2 equ 0Dh ;# 
    52  000D                     # 650 "C:\Program Files (x86)\Microchip\xc8\v1.45\include\pic16f887.h"
    53                           TMR1 equ 0Eh ;# 
    54  000E                     # 657 "C:\Program Files (x86)\Microchip\xc8\v1.45\include\pic16f887.h"
    55                           TMR1L equ 0Eh ;# 
    56  000E                     # 664 "C:\Program Files (x86)\Microchip\xc8\v1.45\include\pic16f887.h"
    57                           TMR1H equ 0Fh ;# 
    58  000F                     # 671 "C:\Program Files (x86)\Microchip\xc8\v1.45\include\pic16f887.h"
    59                           T1CON equ 010h ;# 
    60  0010                     # 765 "C:\Program Files (x86)\Microchip\xc8\v1.45\include\pic16f887.h"
    61                           TMR2 equ 011h ;# 
    62  0011                     # 772 "C:\Program Files (x86)\Microchip\xc8\v1.45\include\pic16f887.h"
    63                           T2CON equ 012h ;# 
    64  0012                     # 843 "C:\Program Files (x86)\Microchip\xc8\v1.45\include\pic16f887.h"
    65                           SSPBUF equ 013h ;# 
    66  0013                     # 850 "C:\Program Files (x86)\Microchip\xc8\v1.45\include\pic16f887.h"
    67                           SSPCON equ 014h ;# 
    68  0014                     # 920 "C:\Program Files (x86)\Microchip\xc8\v1.45\include\pic16f887.h"
    69                           CCPR1 equ 015h ;# 
    70  0015                     # 927 "C:\Program Files (x86)\Microchip\xc8\v1.45\include\pic16f887.h"
    71                           CCPR1L equ 015h ;# 
    72  0015                     # 934 "C:\Program Files (x86)\Microchip\xc8\v1.45\include\pic16f887.h"
    73                           CCPR1H equ 016h ;# 
    74  0016                     # 941 "C:\Program Files (x86)\Microchip\xc8\v1.45\include\pic16f887.h"
    75                           CCP1CON equ 017h ;# 
    76  0017                     # 1038 "C:\Program Files (x86)\Microchip\xc8\v1.45\include\pic16f887.h"
    77                           RCSTA equ 018h ;# 
    78  0018                     # 1133 "C:\Program Files (x86)\Microchip\xc8\v1.45\include\pic16f887.h"
    79                           TXREG equ 019h ;# 
    80  0019                     # 1140 "C:\Program Files (x86)\Microchip\xc8\v1.45\include\pic16f887.h"
    81                           RCREG equ 01Ah ;# 
    82  001A                     # 1147 "C:\Program Files (x86)\Microchip\xc8\v1.45\include\pic16f887.h"
    83                           CCPR2 equ 01Bh ;# 
    84  001B                     # 1154 "C:\Program Files (x86)\Microchip\xc8\v1.45\include\pic16f887.h"
    85                           CCPR2L equ 01Bh ;# 
    86  001B                     # 1161 "C:\Program Files (x86)\Microchip\xc8\v1.45\include\pic16f887.h"
    87                           CCPR2H equ 01Ch ;# 
    88  001C                     # 1168 "C:\Program Files (x86)\Microchip\xc8\v1.45\include\pic16f887.h"
    89                           CCP2CON equ 01Dh ;# 
    90  001D                     # 1238 "C:\Program Files (x86)\Microchip\xc8\v1.45\include\pic16f887.h"
    91                           ADRESH equ 01Eh ;# 
    92  001E                     # 1245 "C:\Program Files (x86)\Microchip\xc8\v1.45\include\pic16f887.h"
    93                           ADCON0 equ 01Fh ;# 
    94  001F                     # 1346 "C:\Program Files (x86)\Microchip\xc8\v1.45\include\pic16f887.h"
    95                           OPTION_REG equ 081h ;# 
    96  0081                     # 1416 "C:\Program Files (x86)\Microchip\xc8\v1.45\include\pic16f887.h"
    97                           TRISA equ 085h ;# 
    98  0085                     # 1478 "C:\Program Files (x86)\Microchip\xc8\v1.45\include\pic16f887.h"
    99                           TRISB equ 086h ;# 
   100  0086                     # 1540 "C:\Program Files (x86)\Microchip\xc8\v1.45\include\pic16f887.h"
   101                           TRISC equ 087h ;# 
   102  0087                     # 1602 "C:\Program Files (x86)\Microchip\xc8\v1.45\include\pic16f887.h"
   103                           TRISD equ 088h ;# 
   104  0088                     # 1664 "C:\Program Files (x86)\Microchip\xc8\v1.45\include\pic16f887.h"
   105                           TRISE equ 089h ;# 
   106  0089                     # 1702 "C:\Program Files (x86)\Microchip\xc8\v1.45\include\pic16f887.h"
   107                           PIE1 equ 08Ch ;# 
   108  008C                     # 1758 "C:\Program Files (x86)\Microchip\xc8\v1.45\include\pic16f887.h"
   109                           PIE2 equ 08Dh ;# 
   110  008D                     # 1815 "C:\Program Files (x86)\Microchip\xc8\v1.45\include\pic16f887.h"
   111                           PCON equ 08Eh ;# 
   112  008E                     # 1862 "C:\Program Files (x86)\Microchip\xc8\v1.45\include\pic16f887.h"
   113                           OSCCON equ 08Fh ;# 
   114  008F                     # 1927 "C:\Program Files (x86)\Microchip\xc8\v1.45\include\pic16f887.h"
   115                           OSCTUNE equ 090h ;# 
   116  0090                     # 1979 "C:\Program Files (x86)\Microchip\xc8\v1.45\include\pic16f887.h"
   117                           SSPCON2 equ 091h ;# 
   118  0091                     # 2041 "C:\Program Files (x86)\Microchip\xc8\v1.45\include\pic16f887.h"
   119                           PR2 equ 092h ;# 
   120  0092                     # 2048 "C:\Program Files (x86)\Microchip\xc8\v1.45\include\pic16f887.h"
   121                           SSPADD equ 093h ;# 
   122  0093                     # 2055 "C:\Program Files (x86)\Microchip\xc8\v1.45\include\pic16f887.h"
   123                           SSPMSK equ 093h ;# 
   124  0093                     # 2060 "C:\Program Files (x86)\Microchip\xc8\v1.45\include\pic16f887.h"
   125                           MSK equ 093h ;# 
   126  0093                     # 2177 "C:\Program Files (x86)\Microchip\xc8\v1.45\include\pic16f887.h"
   127                           SSPSTAT equ 094h ;# 
   128  0094                     # 2346 "C:\Program Files (x86)\Microchip\xc8\v1.45\include\pic16f887.h"
   129                           WPUB equ 095h ;# 
   130  0095                     # 2416 "C:\Program Files (x86)\Microchip\xc8\v1.45\include\pic16f887.h"
   131                           IOCB equ 096h ;# 
   132  0096                     # 2486 "C:\Program Files (x86)\Microchip\xc8\v1.45\include\pic16f887.h"
   133                           VRCON equ 097h ;# 
   134  0097                     # 2556 "C:\Program Files (x86)\Microchip\xc8\v1.45\include\pic16f887.h"
   135                           TXSTA equ 098h ;# 
   136  0098                     # 2642 "C:\Program Files (x86)\Microchip\xc8\v1.45\include\pic16f887.h"
   137                           SPBRG equ 099h ;# 
   138  0099                     # 2704 "C:\Program Files (x86)\Microchip\xc8\v1.45\include\pic16f887.h"
   139                           SPBRGH equ 09Ah ;# 
   140  009A                     # 2774 "C:\Program Files (x86)\Microchip\xc8\v1.45\include\pic16f887.h"
   141                           PWM1CON equ 09Bh ;# 
   142  009B                     # 2844 "C:\Program Files (x86)\Microchip\xc8\v1.45\include\pic16f887.h"
   143                           ECCPAS equ 09Ch ;# 
   144  009C                     # 2926 "C:\Program Files (x86)\Microchip\xc8\v1.45\include\pic16f887.h"
   145                           PSTRCON equ 09Dh ;# 
   146  009D                     # 2970 "C:\Program Files (x86)\Microchip\xc8\v1.45\include\pic16f887.h"
   147                           ADRESL equ 09Eh ;# 
   148  009E                     # 2977 "C:\Program Files (x86)\Microchip\xc8\v1.45\include\pic16f887.h"
   149                           ADCON1 equ 09Fh ;# 
   150  009F                     # 3011 "C:\Program Files (x86)\Microchip\xc8\v1.45\include\pic16f887.h"
   151                           WDTCON equ 0105h ;# 
   152  0105                     # 3064 "C:\Program Files (x86)\Microchip\xc8\v1.45\include\pic16f887.h"
   153                           CM1CON0 equ 0107h ;# 
   154  0107                     # 3129 "C:\Program Files (x86)\Microchip\xc8\v1.45\include\pic16f887.h"
   155                           CM2CON0 equ 0108h ;# 
   156  0108                     # 3194 "C:\Program Files (x86)\Microchip\xc8\v1.45\include\pic16f887.h"
   157                           CM2CON1 equ 0109h ;# 
   158  0109                     # 3245 "C:\Program Files (x86)\Microchip\xc8\v1.45\include\pic16f887.h"
   159                           EEDATA equ 010Ch ;# 
   160  010C                     # 3250 "C:\Program Files (x86)\Microchip\xc8\v1.45\include\pic16f887.h"
   161                           EEDAT equ 010Ch ;# 
   162  010C                     # 3257 "C:\Program Files (x86)\Microchip\xc8\v1.45\include\pic16f887.h"
   163                           EEADR equ 010Dh ;# 
   164  010D                     # 3264 "C:\Program Files (x86)\Microchip\xc8\v1.45\include\pic16f887.h"
   165                           EEDATH equ 010Eh ;# 
   166  010E                     # 3271 "C:\Program Files (x86)\Microchip\xc8\v1.45\include\pic16f887.h"
   167                           EEADRH equ 010Fh ;# 
   168  010F                     # 3278 "C:\Program Files (x86)\Microchip\xc8\v1.45\include\pic16f887.h"
   169                           SRCON equ 0185h ;# 
   170  0185                     # 3335 "C:\Program Files (x86)\Microchip\xc8\v1.45\include\pic16f887.h"
   171                           BAUDCTL equ 0187h ;# 
   172  0187                     # 3387 "C:\Program Files (x86)\Microchip\xc8\v1.45\include\pic16f887.h"
   173                           ANSEL equ 0188h ;# 
   174  0188                     # 3449 "C:\Program Files (x86)\Microchip\xc8\v1.45\include\pic16f887.h"
   175                           ANSELH equ 0189h ;# 
   176  0189                     # 3499 "C:\Program Files (x86)\Microchip\xc8\v1.45\include\pic16f887.h"
   177                           EECON1 equ 018Ch ;# 
   178  018C                     # 3544 "C:\Program Files (x86)\Microchip\xc8\v1.45\include\pic16f887.h"
   179                           EECON2 equ 018Dh ;# 
   180  018D                     	FNCALL	_main,___fldiv
   181                           	FNCALL	_main,___flge
   182                           	FNCALL	_main,___flmul
   183                           	FNCALL	_main,___fltol
   184                           	FNCALL	_main,___lwdiv
   185                           	FNCALL	_main,___lwmod
   186                           	FNCALL	_main,___wmul
   187                           	FNCALL	_main,___xxtofl
   188                           	FNCALL	_main,_round
   189                           	FNCALL	_round,___fladd
   190                           	FNCALL	_round,___flneg
   191                           	FNCALL	_round,_trunc
   192                           	FNCALL	_trunc,___fltol
   193                           	FNCALL	_trunc,___xxtofl
   194                           	FNCALL	_trunc,_frexp
   195                           	FNCALL	___flmul,__Umul8_16
   196                           	FNROOT	_main
   197                           	global	main@led
   198                           psect	strings,class=STRING,delta=2,noexec
   199                           global __pstrings
   200                           __pstrings:
   201  0003                     stringtab:
   202  0003                     	global    __stringtab
   203                           __stringtab:
   204  0003                     ;	String table - string pointers are 1 byte each
   205                           stringcode:stringdir:
   206  0003                     movlw high(stringdir)
      + 0003                     stringdir:	
   207  0003  3000               movwf pclath
   208  0004  008A               movf fsr,w
   209  0005  0804               incf fsr
   210  0006  0A84               	addwf pc
   211  0007  0782               	global __stringbase
   212                           __stringbase:
   213  0008                     	retlw	0
   214  0008  3400               psect	strings
   215                           	global    __end_of__stringtab
   216                           __end_of__stringtab:
   217  0009                     	file	"cau5.c"
   218                           	line	31
   219                           main@led:
   220  0009                     	retlw	0C0h
   221  0009  34C0               	retlw	0
   222  000A  3400               
   223                           	retlw	0F9h
   224  000B  34F9               	retlw	0
   225  000C  3400               
   226                           	retlw	0A4h
   227  000D  34A4               	retlw	0
   228  000E  3400               
   229                           	retlw	0B0h
   230  000F  34B0               	retlw	0
   231  0010  3400               
   232                           	retlw	099h
   233  0011  3499               	retlw	0
   234  0012  3400               
   235                           	retlw	092h
   236  0013  3492               	retlw	0
   237  0014  3400               
   238                           	retlw	082h
   239  0015  3482               	retlw	0
   240  0016  3400               
   241                           	retlw	0F8h
   242  0017  34F8               	retlw	0
   243  0018  3400               
   244                           	retlw	080h
   245  0019  3480               	retlw	0
   246  001A  3400               
   247                           	retlw	090h
   248  001B  3490               	retlw	0
   249  001C  3400               
   250                           	global __end_ofmain@led
   251                           __end_ofmain@led:
   252  001D                     	global	main@led
   253                           	global	_ADRESH
   254                           _ADRESH	set	0x1E
   255  001E                     	global	_ADCON0
   256                           _ADCON0	set	0x1F
   257  001F                     	global	_PORTD
   258                           _PORTD	set	0x8
   259  0008                     	global	_PORTC
   260                           _PORTC	set	0x7
   261  0007                     	global	_PORTB
   262                           _PORTB	set	0x6
   263  0006                     	global	_GO
   264                           _GO	set	0xF9
   265  00F9                     	global	_ADRESL
   266                           _ADRESL	set	0x9E
   267  009E                     	global	_ADCON1
   268                           _ADCON1	set	0x9F
   269  009F                     	global	_TRISD
   270                           _TRISD	set	0x88
   271  0088                     	global	_TRISC
   272                           _TRISC	set	0x87
   273  0087                     	global	_TRISB
   274                           _TRISB	set	0x86
   275  0086                     	global	_ADFM
   276                           _ADFM	set	0x4FF
   277  04FF                     	global	_TRISA0
   278                           _TRISA0	set	0x428
   279  0428                     	global	_ANSELH
   280                           _ANSELH	set	0x189
   281  0189                     	global	_ANSEL
   282                           _ANSEL	set	0x188
   283  0188                     ; #config settings
   284                           global __CFG_FOSC$HS
   285                           __CFG_FOSC$HS equ 0x0
   286  0000                     global __CFG_WDTE$OFF
   287                           __CFG_WDTE$OFF equ 0x0
   288  0000                     global __CFG_PWRTE$OFF
   289                           __CFG_PWRTE$OFF equ 0x0
   290  0000                     global __CFG_MCLRE$ON
   291                           __CFG_MCLRE$ON equ 0x0
   292  0000                     global __CFG_CP$OFF
   293                           __CFG_CP$OFF equ 0x0
   294  0000                     global __CFG_CPD$OFF
   295                           __CFG_CPD$OFF equ 0x0
   296  0000                     global __CFG_BOREN$OFF
   297                           __CFG_BOREN$OFF equ 0x0
   298  0000                     global __CFG_IESO$OFF
   299                           __CFG_IESO$OFF equ 0x0
   300  0000                     global __CFG_FCMEN$OFF
   301                           __CFG_FCMEN$OFF equ 0x0
   302  0000                     global __CFG_LVP$OFF
   303                           __CFG_LVP$OFF equ 0x0
   304  0000                     global __CFG_BOR4V$BOR40V
   305                           __CFG_BOR4V$BOR40V equ 0x0
   306  0000                     global __CFG_WRT$OFF
   307                           __CFG_WRT$OFF equ 0x0
   308  0000                     	file	"C:\Users\DATA\AppData\Local\Temp\s6jg."
   309                           	line	#
   310                           psect cinit,class=CODE,delta=2
   311                           global start_initialization
   312                           start_initialization:
   313  07F8                     
   314                           global __initialization
   315                           __initialization:
   316  07F8                     psect	bssBANK0,class=BANK0,space=1,noexec
   317                           global __pbssBANK0
   318                           __pbssBANK0:
   319  006D                     _errno:
   320  006D                            ds      2
   321  006D                     
   322                           	file	"C:\Users\DATA\AppData\Local\Temp\s6jg."
   323                           	line	#
   324                           ; Clear objects allocated to BANK0
   325                           psect cinit,class=CODE,delta=2,merge=1
   326                           	bcf	status, 5	;RP0=0, select bank0
   327  07F8  1283               	bcf	status, 6	;RP1=0, select bank0
   328  07F9  1303               	clrf	((__pbssBANK0)+0)&07Fh
   329  07FA  01ED               	clrf	((__pbssBANK0)+1)&07Fh
   330  07FB  01EE               psect cinit,class=CODE,delta=2,merge=1
   331                           global end_of_initialization,__end_of__initialization
   332                           
   333                           ;End of C runtime variable initialization code
   334                           
   335                           end_of_initialization:
   336  07FC                     __end_of__initialization:
   337  07FC                     clrf status
   338  07FC  0183               ljmp _main	;jump to C main() function
   339  07FD  120A  158A  2D8E   psect	cstackBANK1,class=BANK1,space=1,noexec
   340                           global __pcstackBANK1
   341                           __pcstackBANK1:
   342  00A0                     ??___fladd:	; 1 bytes @ 0x0
   343  00A0                     	ds	12
   344  00A0                     	global	round@f
   345                           round@f:	; 4 bytes @ 0xC
   346  00AC                     	ds	4
   347  00AC                     	global	?___fldiv
   348                           ?___fldiv:	; 4 bytes @ 0x10
   349  00B0                     	global	___fldiv@a
   350                           ___fldiv@a:	; 4 bytes @ 0x10
   351  00B0                     	ds	4
   352  00B0                     	global	___fldiv@b
   353                           ___fldiv@b:	; 4 bytes @ 0x14
   354  00B4                     	ds	4
   355  00B4                     ??___fldiv:	; 1 bytes @ 0x18
   356  00B8                     	ds	5
   357  00B8                     	global	___fldiv@sign
   358                           ___fldiv@sign:	; 1 bytes @ 0x1D
   359  00BD                     	ds	1
   360  00BD                     	global	___fldiv@rem
   361                           ___fldiv@rem:	; 4 bytes @ 0x1E
   362  00BE                     	ds	4
   363  00BE                     	global	___fldiv@new_exp
   364                           ___fldiv@new_exp:	; 2 bytes @ 0x22
   365  00C2                     	ds	2
   366  00C2                     	global	___fldiv@grs
   367                           ___fldiv@grs:	; 4 bytes @ 0x24
   368  00C4                     	ds	4
   369  00C4                     	global	___fldiv@bexp
   370                           ___fldiv@bexp:	; 1 bytes @ 0x28
   371  00C8                     	ds	1
   372  00C8                     	global	___fldiv@aexp
   373                           ___fldiv@aexp:	; 1 bytes @ 0x29
   374  00C9                     	ds	1
   375  00C9                     ??_main:	; 1 bytes @ 0x2A
   376  00CA                     	ds	4
   377  00CA                     	global	main@storage
   378                           main@storage:	; 2 bytes @ 0x2E
   379  00CE                     	ds	2
   380  00CE                     	global	main@TR
   381                           main@TR:	; 2 bytes @ 0x30
   382  00D0                     	ds	2
   383  00D0                     	global	main@CH
   384                           main@CH:	; 2 bytes @ 0x32
   385  00D2                     	ds	2
   386  00D2                     	global	main@DV
   387                           main@DV:	; 2 bytes @ 0x34
   388  00D4                     	ds	2
   389  00D4                     	global	main@Vout
   390                           main@Vout:	; 4 bytes @ 0x36
   391  00D6                     	ds	4
   392  00D6                     	global	main@Re_Vout
   393                           main@Re_Vout:	; 4 bytes @ 0x3A
   394  00DA                     	ds	4
   395  00DA                     	global	_main$543
   396                           _main$543:	; 2 bytes @ 0x3E
   397  00DE                     	ds	2
   398  00DE                     	global	main@temp
   399                           main@temp:	; 2 bytes @ 0x40
   400  00E0                     	ds	2
   401  00E0                     psect	cstackCOMMON,class=COMMON,space=1,noexec
   402                           global __pcstackCOMMON
   403                           __pcstackCOMMON:
   404  0070                     ?___flge:	; 1 bit 
   405  0070                     ?_main:	; 1 bytes @ 0x0
   406  0070                     	global	?__Umul8_16
   407                           ?__Umul8_16:	; 2 bytes @ 0x0
   408  0070                     	global	?___wmul
   409                           ?___wmul:	; 2 bytes @ 0x0
   410  0070                     	global	?___lwmod
   411                           ?___lwmod:	; 2 bytes @ 0x0
   412  0070                     ?_frexp:	; 4 bytes @ 0x0
   413  0070                     	global	__Umul8_16@multiplicand
   414                           __Umul8_16@multiplicand:	; 1 bytes @ 0x0
   415  0070                     	global	___wmul@multiplier
   416                           ___wmul@multiplier:	; 2 bytes @ 0x0
   417  0070                     	global	___lwmod@divisor
   418                           ___lwmod@divisor:	; 2 bytes @ 0x0
   419  0070                     	global	___flge@ff1
   420                           ___flge@ff1:	; 4 bytes @ 0x0
   421  0070                     	global	frexp@value
   422                           frexp@value:	; 4 bytes @ 0x0
   423  0070                     	ds	2
   424  0070                     ??__Umul8_16:	; 1 bytes @ 0x2
   425  0072                     	global	___wmul@multiplicand
   426                           ___wmul@multiplicand:	; 2 bytes @ 0x2
   427  0072                     	global	___lwmod@dividend
   428                           ___lwmod@dividend:	; 2 bytes @ 0x2
   429  0072                     	ds	2
   430  0072                     ??___wmul:	; 1 bytes @ 0x4
   431  0074                     ??___lwmod:	; 1 bytes @ 0x4
   432  0074                     	global	frexp@eptr
   433                           frexp@eptr:	; 1 bytes @ 0x4
   434  0074                     	global	___wmul@product
   435                           ___wmul@product:	; 2 bytes @ 0x4
   436  0074                     	global	__Umul8_16@product
   437                           __Umul8_16@product:	; 2 bytes @ 0x4
   438  0074                     	global	___flge@ff2
   439                           ___flge@ff2:	; 4 bytes @ 0x4
   440  0074                     	ds	1
   441  0074                     ??_frexp:	; 1 bytes @ 0x5
   442  0075                     	global	___lwmod@counter
   443                           ___lwmod@counter:	; 1 bytes @ 0x5
   444  0075                     	ds	1
   445  0075                     	global	?___lwdiv
   446                           ?___lwdiv:	; 2 bytes @ 0x6
   447  0076                     	global	___lwdiv@divisor
   448                           ___lwdiv@divisor:	; 2 bytes @ 0x6
   449  0076                     	global	__Umul8_16@word_mpld
   450                           __Umul8_16@word_mpld:	; 2 bytes @ 0x6
   451  0076                     	ds	2
   452  0076                     	global	__Umul8_16@multiplier
   453                           __Umul8_16@multiplier:	; 1 bytes @ 0x8
   454  0078                     	global	___lwdiv@dividend
   455                           ___lwdiv@dividend:	; 2 bytes @ 0x8
   456  0078                     	ds	1
   457  0078                     ??___flmul:	; 1 bytes @ 0x9
   458  0079                     	ds	1
   459  0079                     ??___lwdiv:	; 1 bytes @ 0xA
   460  007A                     	ds	1
   461  007A                     	global	___lwdiv@quotient
   462                           ___lwdiv@quotient:	; 2 bytes @ 0xB
   463  007B                     	ds	2
   464  007B                     	global	___lwdiv@counter
   465                           ___lwdiv@counter:	; 1 bytes @ 0xD
   466  007D                     	ds	1
   467  007D                     ??_round:	; 1 bytes @ 0xE
   468  007E                     ??___flneg:	; 1 bytes @ 0xE
   469  007E                     psect	cstackBANK0,class=BANK0,space=1,noexec
   470                           global __pcstackBANK0
   471                           __pcstackBANK0:
   472  0020                     ??___flge:	; 1 bytes @ 0x0
   473  0020                     	global	?___flmul
   474                           ?___flmul:	; 4 bytes @ 0x0
   475  0020                     	global	___flmul@b
   476                           ___flmul@b:	; 4 bytes @ 0x0
   477  0020                     	ds	4
   478  0020                     	global	___flmul@a
   479                           ___flmul@a:	; 4 bytes @ 0x4
   480  0024                     	ds	4
   481  0024                     	global	___flmul@sign
   482                           ___flmul@sign:	; 1 bytes @ 0x8
   483  0028                     	ds	1
   484  0028                     	global	___flmul@grs
   485                           ___flmul@grs:	; 4 bytes @ 0x9
   486  0029                     	ds	4
   487  0029                     	global	___flmul@aexp
   488                           ___flmul@aexp:	; 1 bytes @ 0xD
   489  002D                     	ds	1
   490  002D                     	global	___flmul@bexp
   491                           ___flmul@bexp:	; 1 bytes @ 0xE
   492  002E                     	ds	1
   493  002E                     	global	___flmul@prod
   494                           ___flmul@prod:	; 4 bytes @ 0xF
   495  002F                     	ds	4
   496  002F                     	global	___flmul@temp
   497                           ___flmul@temp:	; 2 bytes @ 0x13
   498  0033                     	ds	2
   499  0033                     	global	?___fltol
   500                           ?___fltol:	; 4 bytes @ 0x15
   501  0035                     	global	___fltol@f1
   502                           ___fltol@f1:	; 4 bytes @ 0x15
   503  0035                     	ds	4
   504  0035                     ??___fltol:	; 1 bytes @ 0x19
   505  0039                     	ds	5
   506  0039                     	global	___fltol@sign1
   507                           ___fltol@sign1:	; 1 bytes @ 0x1E
   508  003E                     	ds	1
   509  003E                     	global	___fltol@exp1
   510                           ___fltol@exp1:	; 1 bytes @ 0x1F
   511  003F                     	ds	1
   512  003F                     	global	?___xxtofl
   513                           ?___xxtofl:	; 4 bytes @ 0x20
   514  0040                     	global	___xxtofl@val
   515                           ___xxtofl@val:	; 4 bytes @ 0x20
   516  0040                     	ds	4
   517  0040                     ??___xxtofl:	; 1 bytes @ 0x24
   518  0044                     	ds	4
   519  0044                     	global	___xxtofl@sign
   520                           ___xxtofl@sign:	; 1 bytes @ 0x28
   521  0048                     	ds	1
   522  0048                     	global	___xxtofl@exp
   523                           ___xxtofl@exp:	; 1 bytes @ 0x29
   524  0049                     	ds	1
   525  0049                     	global	___xxtofl@arg
   526                           ___xxtofl@arg:	; 4 bytes @ 0x2A
   527  004A                     	ds	4
   528  004A                     	global	?_trunc
   529                           ?_trunc:	; 4 bytes @ 0x2E
   530  004E                     	global	trunc@x
   531                           trunc@x:	; 4 bytes @ 0x2E
   532  004E                     	ds	4
   533  004E                     ??_trunc:	; 1 bytes @ 0x32
   534  0052                     	ds	1
   535  0052                     	global	trunc@i
   536                           trunc@i:	; 4 bytes @ 0x33
   537  0053                     	ds	4
   538  0053                     	global	trunc@expon
   539                           trunc@expon:	; 2 bytes @ 0x37
   540  0057                     	ds	2
   541  0057                     	global	?___flneg
   542                           ?___flneg:	; 4 bytes @ 0x39
   543  0059                     	global	___flneg@f1
   544                           ___flneg@f1:	; 4 bytes @ 0x39
   545  0059                     	ds	4
   546  0059                     	global	?___fladd
   547                           ?___fladd:	; 4 bytes @ 0x3D
   548  005D                     	global	___fladd@b
   549                           ___fladd@b:	; 4 bytes @ 0x3D
   550  005D                     	ds	4
   551  005D                     	global	___fladd@a
   552                           ___fladd@a:	; 4 bytes @ 0x41
   553  0061                     	ds	4
   554  0061                     	global	___fladd@signs
   555                           ___fladd@signs:	; 1 bytes @ 0x45
   556  0065                     	ds	1
   557  0065                     	global	___fladd@aexp
   558                           ___fladd@aexp:	; 1 bytes @ 0x46
   559  0066                     	ds	1
   560  0066                     	global	___fladd@bexp
   561                           ___fladd@bexp:	; 1 bytes @ 0x47
   562  0067                     	ds	1
   563  0067                     	global	___fladd@grs
   564                           ___fladd@grs:	; 1 bytes @ 0x48
   565  0068                     	ds	1
   566  0068                     	global	?_round
   567                           ?_round:	; 4 bytes @ 0x49
   568  0069                     	global	round@x
   569                           round@x:	; 4 bytes @ 0x49
   570  0069                     	ds	4
   571  0069                     ;!
   572                           ;!Data Sizes:
   573                           ;!    Strings     0
   574                           ;!    Constant    20
   575                           ;!    Data        0
   576                           ;!    BSS         2
   577                           ;!    Persistent  0
   578                           ;!    Stack       0
   579                           ;!
   580                           ;!Auto Spaces:
   581                           ;!    Space          Size  Autos    Used
   582                           ;!    COMMON           14     14      14
   583                           ;!    BANK0            80     77      79
   584                           ;!    BANK1            80     66      66
   585                           ;!    BANK3            96      0       0
   586                           ;!    BANK2            96      0       0
   587                           
   588                           ;!
   589                           ;!Pointer List with Targets:
   590                           ;!
   591                           ;!    frexp@eptr	PTR int  size(1) Largest target is 2
   592                           ;!		 -> trunc@expon(BANK0[2]), 
   593                           ;!
   594                           
   595                           
   596                           ;!
   597                           ;!Critical Paths under _main in COMMON
   598                           ;!
   599                           ;!    _main->___flmul
   600                           ;!    _main->___lwdiv
   601                           ;!    _round->___flmul
   602                           ;!    ___fltol->___flmul
   603                           ;!    ___lwdiv->___lwmod
   604                           ;!    ___flmul->__Umul8_16
   605                           ;!    ___fldiv->___flmul
   606                           ;!
   607                           ;!Critical Paths under _main in BANK0
   608                           ;!
   609                           ;!    _main->_round
   610                           ;!    _round->___fladd
   611                           ;!    _trunc->___xxtofl
   612                           ;!    ___xxtofl->___fltol
   613                           ;!    ___fltol->___flmul
   614                           ;!    ___flneg->_trunc
   615                           ;!    ___fladd->___flneg
   616                           ;!    ___fldiv->_round
   617                           ;!
   618                           ;!Critical Paths under _main in BANK1
   619                           ;!
   620                           ;!    _main->___fldiv
   621                           ;!    _round->___fladd
   622                           ;!    ___fldiv->_round
   623                           ;!
   624                           ;!Critical Paths under _main in BANK3
   625                           ;!
   626                           ;!    None.
   627                           ;!
   628                           ;!Critical Paths under _main in BANK2
   629                           ;!
   630                           ;!    None.
   631                           
   632 ;;
   633 ;;Main: autosize = 0, tempsize = 4, incstack = 0, save=0
   634 ;;
   635                           
   636                           ;!
   637                           ;!Call Graph Tables:
   638                           ;!
   639                           ;! ---------------------------------------------------------------------------------
   640                           ;! (Depth) Function   	        Calls       Base Space   Used Autos Params    Refs
   641                           ;! ---------------------------------------------------------------------------------
   642                           ;! (0) _main                                                24    24      0   12271
   643                           ;!                                             42 BANK1     24    24      0
   644                           ;!                            ___fldiv
   645                           ;!                             ___flge
   646                           ;!                            ___flmul
   647                           ;!                            ___fltol
   648                           ;!                            ___lwdiv
   649                           ;!                            ___lwmod
   650                           ;!                             ___wmul
   651                           ;!                           ___xxtofl
   652                           ;!                              _round
   653                           ;! ---------------------------------------------------------------------------------
   654                           ;! (1) _round                                                8     4      4    4329
   655                           ;!                                             73 BANK0      4     0      4
   656                           ;!                                             12 BANK1      4     4      0
   657                           ;!                            ___fladd
   658                           ;!                            ___flmul (ARG)
   659                           ;!                            ___flneg
   660                           ;!                              _trunc
   661                           ;! ---------------------------------------------------------------------------------
   662                           ;! (2) _trunc                                               11     7      4    1606
   663                           ;!                                             46 BANK0     11     7      4
   664                           ;!                            ___fltol
   665                           ;!                           ___xxtofl
   666                           ;!                              _frexp
   667                           ;! ---------------------------------------------------------------------------------
   668                           ;! (3) _frexp                                                7     2      5     360
   669                           ;!                                              0 COMMON     7     2      5
   670                           ;! ---------------------------------------------------------------------------------
   671                           ;! (3) ___xxtofl                                            14    10      4     474
   672                           ;!                                             32 BANK0     14    10      4
   673                           ;!                            ___fltol (ARG)
   674                           ;!                             ___wmul (ARG)
   675                           ;! ---------------------------------------------------------------------------------
   676                           ;! (3) ___fltol                                             11     7      4     457
   677                           ;!                                             21 BANK0     11     7      4
   678                           ;!                            ___flmul (ARG)
   679                           ;! ---------------------------------------------------------------------------------
   680                           ;! (2) ___flneg                                              4     0      4     121
   681                           ;!                                             57 BANK0      4     0      4
   682                           ;!                              _trunc (ARG)
   683                           ;! ---------------------------------------------------------------------------------
   684                           ;! (2) ___fladd                                             24    16      8    2414
   685                           ;!                                             61 BANK0     12     4      8
   686                           ;!                                              0 BANK1     12    12      0
   687                           ;!                            ___flneg (ARG)
   688                           ;!                              _trunc (ARG)
   689                           ;! ---------------------------------------------------------------------------------
   690                           ;! (1) ___wmul                                               6     2      4     244
   691                           ;!                                              0 COMMON     6     2      4
   692                           ;! ---------------------------------------------------------------------------------
   693                           ;! (1) ___lwmod                                              6     2      4    1071
   694                           ;!                                              0 COMMON     6     2      4
   695                           ;! ---------------------------------------------------------------------------------
   696                           ;! (1) ___lwdiv                                              8     4      4     770
   697                           ;!                                              6 COMMON     8     4      4
   698                           ;!                            ___lwmod (ARG)
   699                           ;! ---------------------------------------------------------------------------------
   700                           ;! (1) ___flmul                                             26    18      8    2721
   701                           ;!                                              9 COMMON     5     5      0
   702                           ;!                                              0 BANK0     21    13      8
   703                           ;!                          __Umul8_16
   704                           ;! ---------------------------------------------------------------------------------
   705                           ;! (2) __Umul8_16                                            9     7      2     799
   706                           ;!                                              0 COMMON     9     7      2
   707                           ;! ---------------------------------------------------------------------------------
   708                           ;! (1) ___flge                                              16     8      8     460
   709                           ;!                                              0 COMMON     8     0      8
   710                           ;!                                              0 BANK0      8     8      0
   711                           ;! ---------------------------------------------------------------------------------
   712                           ;! (1) ___fldiv                                             26    18      8    1379
   713                           ;!                                             16 BANK1     26    18      8
   714                           ;!                            ___flmul (ARG)
   715                           ;!                             ___wmul (ARG)
   716                           ;!                           ___xxtofl (ARG)
   717                           ;!                              _round (ARG)
   718                           ;! ---------------------------------------------------------------------------------
   719                           ;! Estimated maximum stack depth 3
   720                           ;! ---------------------------------------------------------------------------------
   721                           ;!
   722                           ;! Call Graph Graphs:
   723                           ;!
   724                           ;! _main (ROOT)
   725                           ;!   ___fldiv
   726                           ;!     ___flmul (ARG)
   727                           ;!       __Umul8_16
   728                           ;!     ___wmul (ARG)
   729                           ;!     ___xxtofl (ARG)
   730                           ;!       ___fltol (ARG)
   731                           ;!         ___flmul (ARG)
   732                           ;!           __Umul8_16
   733                           ;!       ___wmul (ARG)
   734                           ;!     _round (ARG)
   735                           ;!       ___fladd
   736                           ;!         ___flneg (ARG)
   737                           ;!           _trunc (ARG)
   738                           ;!             ___fltol
   739                           ;!               ___flmul (ARG)
   740                           ;!                 __Umul8_16
   741                           ;!             ___xxtofl
   742                           ;!               ___fltol (ARG)
   743                           ;!                 ___flmul (ARG)
   744                           ;!                   __Umul8_16
   745                           ;!               ___wmul (ARG)
   746                           ;!             _frexp
   747                           ;!         _trunc (ARG)
   748                           ;!           ___fltol
   749                           ;!             ___flmul (ARG)
   750                           ;!               __Umul8_16
   751                           ;!           ___xxtofl
   752                           ;!             ___fltol (ARG)
   753                           ;!               ___flmul (ARG)
   754                           ;!                 __Umul8_16
   755                           ;!             ___wmul (ARG)
   756                           ;!           _frexp
   757                           ;!       ___flmul (ARG)
   758                           ;!         __Umul8_16
   759                           ;!       ___flneg (ARG)
   760                           ;!         _trunc (ARG)
   761                           ;!           ___fltol
   762                           ;!             ___flmul (ARG)
   763                           ;!               __Umul8_16
   764                           ;!           ___xxtofl
   765                           ;!             ___fltol (ARG)
   766                           ;!               ___flmul (ARG)
   767                           ;!                 __Umul8_16
   768                           ;!             ___wmul (ARG)
   769                           ;!           _frexp
   770                           ;!       _trunc (ARG)
   771                           ;!         ___fltol
   772                           ;!           ___flmul (ARG)
   773                           ;!             __Umul8_16
   774                           ;!         ___xxtofl
   775                           ;!           ___fltol (ARG)
   776                           ;!             ___flmul (ARG)
   777                           ;!               __Umul8_16
   778                           ;!           ___wmul (ARG)
   779                           ;!         _frexp
   780                           ;!   ___flge
   781                           ;!   ___flmul
   782                           ;!     __Umul8_16
   783                           ;!   ___fltol
   784                           ;!     ___flmul (ARG)
   785                           ;!       __Umul8_16
   786                           ;!   ___lwdiv
   787                           ;!     ___lwmod (ARG)
   788                           ;!   ___lwmod
   789                           ;!   ___wmul
   790                           ;!   ___xxtofl
   791                           ;!     ___fltol (ARG)
   792                           ;!       ___flmul (ARG)
   793                           ;!         __Umul8_16
   794                           ;!     ___wmul (ARG)
   795                           ;!   _round
   796                           ;!     ___fladd
   797                           ;!       ___flneg (ARG)
   798                           ;!         _trunc (ARG)
   799                           ;!           ___fltol
   800                           ;!             ___flmul (ARG)
   801                           ;!               __Umul8_16
   802                           ;!           ___xxtofl
   803                           ;!             ___fltol (ARG)
   804                           ;!               ___flmul (ARG)
   805                           ;!                 __Umul8_16
   806                           ;!             ___wmul (ARG)
   807                           ;!           _frexp
   808                           ;!       _trunc (ARG)
   809                           ;!         ___fltol
   810                           ;!           ___flmul (ARG)
   811                           ;!             __Umul8_16
   812                           ;!         ___xxtofl
   813                           ;!           ___fltol (ARG)
   814                           ;!             ___flmul (ARG)
   815                           ;!               __Umul8_16
   816                           ;!           ___wmul (ARG)
   817                           ;!         _frexp
   818                           ;!     ___flmul (ARG)
   819                           ;!       __Umul8_16
   820                           ;!     ___flneg (ARG)
   821                           ;!       _trunc (ARG)
   822                           ;!         ___fltol
   823                           ;!           ___flmul (ARG)
   824                           ;!             __Umul8_16
   825                           ;!         ___xxtofl
   826                           ;!           ___fltol (ARG)
   827                           ;!             ___flmul (ARG)
   828                           ;!               __Umul8_16
   829                           ;!           ___wmul (ARG)
   830                           ;!         _frexp
   831                           ;!     _trunc (ARG)
   832                           ;!       ___fltol
   833                           ;!         ___flmul (ARG)
   834                           ;!           __Umul8_16
   835                           ;!       ___xxtofl
   836                           ;!         ___fltol (ARG)
   837                           ;!           ___flmul (ARG)
   838                           ;!             __Umul8_16
   839                           ;!         ___wmul (ARG)
   840                           ;!       _frexp
   841                           ;!
   842                           
   843                           ;! Address spaces:
   844                           
   845                           ;!Name               Size   Autos  Total    Cost      Usage
   846                           ;!BITCOMMON            E      0       0       0        0.0%
   847                           ;!EEDATA             100      0       0       0        0.0%
   848                           ;!NULL                 0      0       0       0        0.0%
   849                           ;!CODE                 0      0       0       0        0.0%
   850                           ;!COMMON               E      E       E       1      100.0%
   851                           ;!BITSFR0              0      0       0       1        0.0%
   852                           ;!SFR0                 0      0       0       1        0.0%
   853                           ;!BITSFR1              0      0       0       2        0.0%
   854                           ;!SFR1                 0      0       0       2        0.0%
   855                           ;!STACK                0      0       0       2        0.0%
   856                           ;!ABS                  0      0      9F       3        0.0%
   857                           ;!BITBANK0            50      0       0       4        0.0%
   858                           ;!BITSFR3              0      0       0       4        0.0%
   859                           ;!SFR3                 0      0       0       4        0.0%
   860                           ;!BANK0               50     4D      4F       5       98.8%
   861                           ;!BITSFR2              0      0       0       5        0.0%
   862                           ;!SFR2                 0      0       0       5        0.0%
   863                           ;!BITBANK1            50      0       0       6        0.0%
   864                           ;!BANK1               50     42      42       7       82.5%
   865                           ;!BITBANK3            60      0       0       8        0.0%
   866                           ;!BANK3               60      0       0       9        0.0%
   867                           ;!BITBANK2            60      0       0      10        0.0%
   868                           ;!BANK2               60      0       0      11        0.0%
   869                           ;!DATA                 0      0      9F      12        0.0%
   870                           
   871                           	global	_main
   872                           
   873 ;; *************** function _main *****************
   874 ;; Defined at:
   875 ;;		line 19 in file "cau5.c"
   876 ;; Parameters:    Size  Location     Type
   877 ;;		None
   878 ;; Auto vars:     Size  Location     Type
   879 ;;  Re_Vout         4   58[BANK1 ] float 
   880 ;;  Vout            4   54[BANK1 ] float 
   881 ;;  temp            2   64[BANK1 ] unsigned int 
   882 ;;  DV              2   52[BANK1 ] unsigned int 
   883 ;;  CH              2   50[BANK1 ] unsigned int 
   884 ;;  TR              2   48[BANK1 ] unsigned int 
   885 ;;  storage         2   46[BANK1 ] unsigned int 
   886 ;; Return value:  Size  Location     Type
   887 ;;                  1    wreg      void 
   888 ;; Registers used:
   889 ;;		wreg, fsr0l, fsr0h, status,2, status,0, btemp+1, pclath, cstack
   890 ;; Tracked objects:
   891 ;;		On entry : B00/0
   892 ;;		On exit  : 0/0
   893 ;;		Unchanged: 0/0
   894 ;; Data sizes:     COMMON   BANK0   BANK1   BANK3   BANK2
   895 ;;      Params:         0       0       0       0       0
   896 ;;      Locals:         0       0      20       0       0
   897 ;;      Temps:          0       0       4       0       0
   898 ;;      Totals:         0       0      24       0       0
   899 ;;Total ram usage:       24 bytes
   900 ;; Hardware stack levels required when called:    3
   901 ;; This function calls:
   902 ;;		___fldiv
   903 ;;		___flge
   904 ;;		___flmul
   905 ;;		___fltol
   906 ;;		___lwdiv
   907 ;;		___lwmod
   908 ;;		___wmul
   909 ;;		___xxtofl
   910 ;;		_round
   911 ;; This function is called by:
   912 ;;		Startup code after reset
   913 ;; This function uses a non-reentrant model
   914 ;;
   915                           psect	maintext,global,class=CODE,delta=2,split=1,group=0
   916                           	file	"cau5.c"
   917                           	line	19
   918                           global __pmaintext
   919                           __pmaintext:	;psect for function _main
   920  0D8E                     psect	maintext
   921                           	file	"cau5.c"
   922                           	line	19
   923                           	global	__size_of_main
   924                           	__size_of_main	equ	__end_of_main-_main
   925  0272                     	
   926                           _main:	
   927  0D8E                     ;incstack = 0
   928                           	opt	stack 5
   929                           ; Regs used in _main: [wreg-fsr0h+status,2+status,0+btemp+1+pclath+cstack]
   930                           	line	20
   931                           	
   932                           l2049:	
   933  0D8E                     ;cau5.c: 20: ANSEL = 0x01;
   934                           	movlw	low(01h)
   935  0D8E  3001               	bsf	status, 5	;RP0=1, select bank3
   936  0D8F  1683               	bsf	status, 6	;RP1=1, select bank3
   937  0D90  1703               	movwf	(392)^0180h	;volatile
   938  0D91  0088               	line	21
   939                           	
   940                           l2051:	
   941  0D92                     ;cau5.c: 21: ANSELH = 0;
   942                           	clrf	(393)^0180h	;volatile
   943  0D92  0189               	line	22
   944                           	
   945                           l2053:	
   946  0D93                     ;cau5.c: 22: TRISA0 = 1;
   947                           	bsf	status, 5	;RP0=1, select bank1
   948  0D93  1683               	bcf	status, 6	;RP1=0, select bank1
   949  0D94  1303               	bsf	(1064/8)^080h,(1064)&7	;volatile
   950  0D95  1405               	line	23
   951                           	
   952                           l2055:	
   953  0D96                     ;cau5.c: 23: TRISB = TRISC = TRISD = 0;
   954                           	clrf	(136)^080h	;volatile
   955  0D96  0188               	clrf	(135)^080h	;volatile
   956  0D97  0187               	clrf	(134)^080h	;volatile
   957  0D98  0186               	line	24
   958                           	
   959                           l2057:	
   960  0D99                     ;cau5.c: 24: PORTB = 0;
   961                           	bcf	status, 5	;RP0=0, select bank0
   962  0D99  1283               	bcf	status, 6	;RP1=0, select bank0
   963  0D9A  1303               	clrf	(6)	;volatile
   964  0D9B  0186               	line	25
   965                           	
   966                           l2059:	
   967  0D9C                     ;cau5.c: 25: PORTC = 0;
   968                           	clrf	(7)	;volatile
   969  0D9C  0187               	line	26
   970                           	
   971                           l2061:	
   972  0D9D                     ;cau5.c: 26: PORTD = 0;
   973                           	clrf	(8)	;volatile
   974  0D9D  0188               	line	27
   975                           	
   976                           l2063:	
   977  0D9E                     ;cau5.c: 27: ADCON1 = 0x80;
   978                           	movlw	low(080h)
   979  0D9E  3080               	bsf	status, 5	;RP0=1, select bank1
   980  0D9F  1683               	bcf	status, 6	;RP1=0, select bank1
   981  0DA0  1303               	movwf	(159)^080h	;volatile
   982  0DA1  009F               	line	28
   983                           	
   984                           l2065:	
   985  0DA2                     ;cau5.c: 28: ADCON0 = 0x81;
   986                           	movlw	low(081h)
   987  0DA2  3081               	bcf	status, 5	;RP0=0, select bank0
   988  0DA3  1283               	bcf	status, 6	;RP1=0, select bank0
   989  0DA4  1303               	movwf	(31)	;volatile
   990  0DA5  009F               	line	29
   991                           	
   992                           l2067:	
   993  0DA6                     ;cau5.c: 29: ADFM = 1;
   994                           	bsf	status, 5	;RP0=1, select bank1
   995  0DA6  1683               	bcf	status, 6	;RP1=0, select bank1
   996  0DA7  1303               	bsf	(1279/8)^080h,(1279)&7	;volatile
   997  0DA8  179F               	line	30
   998                           	
   999                           l2069:	
  1000  0DA9                     ;cau5.c: 30: unsigned int storage = 0;
  1001                           	clrf	(main@storage)^080h
  1002  0DA9  01CE               	clrf	(main@storage+1)^080h
  1003  0DAA  01CF               	goto	l2071
  1004  0DAB  2DAC               	line	34
  1005                           ;cau5.c: 31: const int led[10]={0xC0,0xF9,0xA4,0xB0,0x99,0x92,0x82,0xF8,0x80,0x90};
  1006                           ;cau5.c: 32: float Vout, Re_Vout;
  1007                           ;cau5.c: 33: unsigned int TR, CH, DV, temp;
  1008                           ;cau5.c: 34: while(1) {
  1009                           	
  1010                           l41:	
  1011  0DAC                     	line	35
  1012                           	
  1013                           l2071:	
  1014  0DAC                     ;cau5.c: 35: _delay((unsigned long)((6)*(4000000/4000000.0)));
  1015                           		opt asmopt_push
  1016                           	opt asmopt_off
  1017                           	nop2	;2 cycle nop
  1018  0DAC  2DAD               	nop2	;2 cycle nop
  1019  0DAD  2DAE               	nop2	;2 cycle nop
  1020  0DAE  2DAF               	opt asmopt_pop
  1021                           
  1022                           	line	36
  1023                           	
  1024                           l2073:	
  1025  0DAF                     ;cau5.c: 36: GO = 1;
  1026                           	bcf	status, 5	;RP0=0, select bank0
  1027  0DAF  1283               	bcf	status, 6	;RP1=0, select bank0
  1028  0DB0  1303               	bsf	(249/8),(249)&7	;volatile
  1029  0DB1  149F               	line	37
  1030                           ;cau5.c: 37: while(GO);
  1031                           	goto	l42
  1032  0DB2  2DB3               	
  1033                           l43:	
  1034  0DB3                     	
  1035                           l42:	
  1036  0DB3                     	btfsc	(249/8),(249)&7	;volatile
  1037  0DB3  189F               	goto	u3381
  1038  0DB4  2DB6               	goto	u3380
  1039  0DB5  2DB7               u3381:
  1040  0DB6                     	goto	l42
  1041  0DB6  2DB3               u3380:
  1042  0DB7                     	goto	l2075
  1043  0DB7  2DB8               	
  1044                           l44:	
  1045  0DB8                     	line	38
  1046                           	
  1047                           l2075:	
  1048  0DB8                     ;cau5.c: 38: storage = (ADRESH << 8) | ADRESL;
  1049                           	movf	(30),w	;volatile
  1050  0DB8  081E               	bsf	status, 5	;RP0=1, select bank1
  1051  0DB9  1683               	bcf	status, 6	;RP1=0, select bank1
  1052  0DBA  1303               	movwf	(main@storage+1)^080h
  1053  0DBB  00CF               	movf	(158)^080h,w	;volatile
  1054  0DBC  081E               	movwf	(main@storage)^080h
  1055  0DBD  00CE               	line	39
  1056                           	
  1057                           l2077:	
  1058  0DBE                     ;cau5.c: 39: Vout = (float)(storage * 5) / 1023;
  1059                           	movlw	0x44
  1060  0DBE  3044               	movwf	(___fldiv@a+3)^080h
  1061  0DBF  00B3               	movlw	0x7f
  1062  0DC0  307F               	movwf	(___fldiv@a+2)^080h
  1063  0DC1  00B2               	movlw	0xc0
  1064  0DC2  30C0               	movwf	(___fldiv@a+1)^080h
  1065  0DC3  00B1               	movlw	0x0
  1066  0DC4  3000               	movwf	(___fldiv@a)^080h
  1067  0DC5  00B0               
  1068                           	movlw	05h
  1069  0DC6  3005               	movwf	(___wmul@multiplicand)
  1070  0DC7  00F2               	movlw	0
  1071  0DC8  3000               	movwf	((___wmul@multiplicand))+1
  1072  0DC9  00F3               	movf	(main@storage+1)^080h,w
  1073  0DCA  084F               	movwf	(___wmul@multiplier+1)
  1074  0DCB  00F1               	movf	(main@storage)^080h,w
  1075  0DCC  084E               	movwf	(___wmul@multiplier)
  1076  0DCD  00F0               	fcall	___wmul
  1077  0DCE  120A  158A  201C  120A  158A  	movf	(0+(?___wmul)),w
  1078  0DD3  0870               	bsf	status, 5	;RP0=1, select bank1
  1079  0DD4  1683               	bcf	status, 6	;RP1=0, select bank1
  1080  0DD5  1303               	movwf	((??_main+0)^080h+0)
  1081  0DD6  00CA               	movf	(1+(?___wmul)),w
  1082  0DD7  0871               	movwf	((??_main+0)^080h+0+1)
  1083  0DD8  00CB               	clrf	((??_main+0)^080h+0+2)
  1084  0DD9  01CC               	clrf	((??_main+0)^080h+0+3)
  1085  0DDA  01CD               	movf	3+(??_main+0)^080h+0,w
  1086  0DDB  084D               	bcf	status, 5	;RP0=0, select bank0
  1087  0DDC  1283               	bcf	status, 6	;RP1=0, select bank0
  1088  0DDD  1303               	movwf	(___xxtofl@val+3)
  1089  0DDE  00C3               	bsf	status, 5	;RP0=1, select bank1
  1090  0DDF  1683               	bcf	status, 6	;RP1=0, select bank1
  1091  0DE0  1303               	movf	2+(??_main+0)^080h+0,w
  1092  0DE1  084C               	bcf	status, 5	;RP0=0, select bank0
  1093  0DE2  1283               	bcf	status, 6	;RP1=0, select bank0
  1094  0DE3  1303               	movwf	(___xxtofl@val+2)
  1095  0DE4  00C2               	bsf	status, 5	;RP0=1, select bank1
  1096  0DE5  1683               	bcf	status, 6	;RP1=0, select bank1
  1097  0DE6  1303               	movf	1+(??_main+0)^080h+0,w
  1098  0DE7  084B               	bcf	status, 5	;RP0=0, select bank0
  1099  0DE8  1283               	bcf	status, 6	;RP1=0, select bank0
  1100  0DE9  1303               	movwf	(___xxtofl@val+1)
  1101  0DEA  00C1               	bsf	status, 5	;RP0=1, select bank1
  1102  0DEB  1683               	bcf	status, 6	;RP1=0, select bank1
  1103  0DEC  1303               	movf	0+(??_main+0)^080h+0,w
  1104  0DED  084A               	bcf	status, 5	;RP0=0, select bank0
  1105  0DEE  1283               	bcf	status, 6	;RP1=0, select bank0
  1106  0DEF  1303               	movwf	(___xxtofl@val)
  1107  0DF0  00C0               
  1108                           	movlw	low(0)
  1109  0DF1  3000               	fcall	___xxtofl
  1110  0DF2  120A  118A  202A  120A  158A  	bcf	status, 5	;RP0=0, select bank0
  1111  0DF7  1283               	bcf	status, 6	;RP1=0, select bank0
  1112  0DF8  1303               	movf	(3+(?___xxtofl)),w
  1113  0DF9  0843               	bsf	status, 5	;RP0=1, select bank1
  1114  0DFA  1683               	bcf	status, 6	;RP1=0, select bank1
  1115  0DFB  1303               	movwf	(___fldiv@b+3)^080h
  1116  0DFC  00B7               	bcf	status, 5	;RP0=0, select bank0
  1117  0DFD  1283               	bcf	status, 6	;RP1=0, select bank0
  1118  0DFE  1303               	movf	(2+(?___xxtofl)),w
  1119  0DFF  0842               	bsf	status, 5	;RP0=1, select bank1
  1120  0E00  1683               	bcf	status, 6	;RP1=0, select bank1
  1121  0E01  1303               	movwf	(___fldiv@b+2)^080h
  1122  0E02  00B6               	bcf	status, 5	;RP0=0, select bank0
  1123  0E03  1283               	bcf	status, 6	;RP1=0, select bank0
  1124  0E04  1303               	movf	(1+(?___xxtofl)),w
  1125  0E05  0841               	bsf	status, 5	;RP0=1, select bank1
  1126  0E06  1683               	bcf	status, 6	;RP1=0, select bank1
  1127  0E07  1303               	movwf	(___fldiv@b+1)^080h
  1128  0E08  00B5               	bcf	status, 5	;RP0=0, select bank0
  1129  0E09  1283               	bcf	status, 6	;RP1=0, select bank0
  1130  0E0A  1303               	movf	(0+(?___xxtofl)),w
  1131  0E0B  0840               	bsf	status, 5	;RP0=1, select bank1
  1132  0E0C  1683               	bcf	status, 6	;RP1=0, select bank1
  1133  0E0D  1303               	movwf	(___fldiv@b)^080h
  1134  0E0E  00B4               
  1135                           	fcall	___fldiv
  1136  0E0F  120A  158A  2389  120A  158A  	bsf	status, 5	;RP0=1, select bank1
  1137  0E14  1683               	bcf	status, 6	;RP1=0, select bank1
  1138  0E15  1303               	movf	(3+(?___fldiv))^080h,w
  1139  0E16  0833               	movwf	(main@Vout+3)^080h
  1140  0E17  00D9               	movf	(2+(?___fldiv))^080h,w
  1141  0E18  0832               	movwf	(main@Vout+2)^080h
  1142  0E19  00D8               	movf	(1+(?___fldiv))^080h,w
  1143  0E1A  0831               	movwf	(main@Vout+1)^080h
  1144  0E1B  00D7               	movf	(0+(?___fldiv))^080h,w
  1145  0E1C  0830               	movwf	(main@Vout)^080h
  1146  0E1D  00D6               
  1147                           	line	40
  1148                           	
  1149                           l2079:	
  1150  0E1E                     ;cau5.c: 40: Re_Vout = round(Vout * 100) / 100;
  1151                           	movlw	0x42
  1152  0E1E  3042               	movwf	(___fldiv@a+3)^080h
  1153  0E1F  00B3               	movlw	0xc8
  1154  0E20  30C8               	movwf	(___fldiv@a+2)^080h
  1155  0E21  00B2               	movlw	0x0
  1156  0E22  3000               	movwf	(___fldiv@a+1)^080h
  1157  0E23  00B1               	movlw	0x0
  1158  0E24  3000               	movwf	(___fldiv@a)^080h
  1159  0E25  00B0               
  1160                           	movlw	0x42
  1161  0E26  3042               	bcf	status, 5	;RP0=0, select bank0
  1162  0E27  1283               	bcf	status, 6	;RP1=0, select bank0
  1163  0E28  1303               	movwf	(___flmul@b+3)
  1164  0E29  00A3               	movlw	0xc8
  1165  0E2A  30C8               	movwf	(___flmul@b+2)
  1166  0E2B  00A2               	movlw	0x0
  1167  0E2C  3000               	movwf	(___flmul@b+1)
  1168  0E2D  00A1               	movlw	0x0
  1169  0E2E  3000               	movwf	(___flmul@b)
  1170  0E2F  00A0               
  1171                           	bsf	status, 5	;RP0=1, select bank1
  1172  0E30  1683               	bcf	status, 6	;RP1=0, select bank1
  1173  0E31  1303               	movf	(main@Vout+3)^080h,w
  1174  0E32  0859               	bcf	status, 5	;RP0=0, select bank0
  1175  0E33  1283               	bcf	status, 6	;RP1=0, select bank0
  1176  0E34  1303               	movwf	(___flmul@a+3)
  1177  0E35  00A7               	bsf	status, 5	;RP0=1, select bank1
  1178  0E36  1683               	bcf	status, 6	;RP1=0, select bank1
  1179  0E37  1303               	movf	(main@Vout+2)^080h,w
  1180  0E38  0858               	bcf	status, 5	;RP0=0, select bank0
  1181  0E39  1283               	bcf	status, 6	;RP1=0, select bank0
  1182  0E3A  1303               	movwf	(___flmul@a+2)
  1183  0E3B  00A6               	bsf	status, 5	;RP0=1, select bank1
  1184  0E3C  1683               	bcf	status, 6	;RP1=0, select bank1
  1185  0E3D  1303               	movf	(main@Vout+1)^080h,w
  1186  0E3E  0857               	bcf	status, 5	;RP0=0, select bank0
  1187  0E3F  1283               	bcf	status, 6	;RP1=0, select bank0
  1188  0E40  1303               	movwf	(___flmul@a+1)
  1189  0E41  00A5               	bsf	status, 5	;RP0=1, select bank1
  1190  0E42  1683               	bcf	status, 6	;RP1=0, select bank1
  1191  0E43  1303               	movf	(main@Vout)^080h,w
  1192  0E44  0856               	bcf	status, 5	;RP0=0, select bank0
  1193  0E45  1283               	bcf	status, 6	;RP1=0, select bank0
  1194  0E46  1303               	movwf	(___flmul@a)
  1195  0E47  00A4               
  1196                           	fcall	___flmul
  1197  0E48  120A  118A  20EE  120A  158A  	bcf	status, 5	;RP0=0, select bank0
  1198  0E4D  1283               	bcf	status, 6	;RP1=0, select bank0
  1199  0E4E  1303               	movf	(3+(?___flmul)),w
  1200  0E4F  0823               	movwf	(round@x+3)
  1201  0E50  00EC               	movf	(2+(?___flmul)),w
  1202  0E51  0822               	movwf	(round@x+2)
  1203  0E52  00EB               	movf	(1+(?___flmul)),w
  1204  0E53  0821               	movwf	(round@x+1)
  1205  0E54  00EA               	movf	(0+(?___flmul)),w
  1206  0E55  0820               	movwf	(round@x)
  1207  0E56  00E9               
  1208                           	fcall	_round
  1209  0E57  120A  158A  2197  120A  158A  	bcf	status, 5	;RP0=0, select bank0
  1210  0E5C  1283               	bcf	status, 6	;RP1=0, select bank0
  1211  0E5D  1303               	movf	(3+(?_round)),w
  1212  0E5E  086C               	bsf	status, 5	;RP0=1, select bank1
  1213  0E5F  1683               	bcf	status, 6	;RP1=0, select bank1
  1214  0E60  1303               	movwf	(___fldiv@b+3)^080h
  1215  0E61  00B7               	bcf	status, 5	;RP0=0, select bank0
  1216  0E62  1283               	bcf	status, 6	;RP1=0, select bank0
  1217  0E63  1303               	movf	(2+(?_round)),w
  1218  0E64  086B               	bsf	status, 5	;RP0=1, select bank1
  1219  0E65  1683               	bcf	status, 6	;RP1=0, select bank1
  1220  0E66  1303               	movwf	(___fldiv@b+2)^080h
  1221  0E67  00B6               	bcf	status, 5	;RP0=0, select bank0
  1222  0E68  1283               	bcf	status, 6	;RP1=0, select bank0
  1223  0E69  1303               	movf	(1+(?_round)),w
  1224  0E6A  086A               	bsf	status, 5	;RP0=1, select bank1
  1225  0E6B  1683               	bcf	status, 6	;RP1=0, select bank1
  1226  0E6C  1303               	movwf	(___fldiv@b+1)^080h
  1227  0E6D  00B5               	bcf	status, 5	;RP0=0, select bank0
  1228  0E6E  1283               	bcf	status, 6	;RP1=0, select bank0
  1229  0E6F  1303               	movf	(0+(?_round)),w
  1230  0E70  0869               	bsf	status, 5	;RP0=1, select bank1
  1231  0E71  1683               	bcf	status, 6	;RP1=0, select bank1
  1232  0E72  1303               	movwf	(___fldiv@b)^080h
  1233  0E73  00B4               
  1234                           	fcall	___fldiv
  1235  0E74  120A  158A  2389  120A  158A  	bsf	status, 5	;RP0=1, select bank1
  1236  0E79  1683               	bcf	status, 6	;RP1=0, select bank1
  1237  0E7A  1303               	movf	(3+(?___fldiv))^080h,w
  1238  0E7B  0833               	movwf	(main@Re_Vout+3)^080h
  1239  0E7C  00DD               	movf	(2+(?___fldiv))^080h,w
  1240  0E7D  0832               	movwf	(main@Re_Vout+2)^080h
  1241  0E7E  00DC               	movf	(1+(?___fldiv))^080h,w
  1242  0E7F  0831               	movwf	(main@Re_Vout+1)^080h
  1243  0E80  00DB               	movf	(0+(?___fldiv))^080h,w
  1244  0E81  0830               	movwf	(main@Re_Vout)^080h
  1245  0E82  00DA               
  1246                           	line	41
  1247                           	
  1248                           l2081:	
  1249  0E83                     ;cau5.c: 41: if(Vout < 1) {
  1250                           	movf	(main@Vout+3)^080h,w
  1251  0E83  0859               	movwf	(___flge@ff1+3)
  1252  0E84  00F3               	movf	(main@Vout+2)^080h,w
  1253  0E85  0858               	movwf	(___flge@ff1+2)
  1254  0E86  00F2               	movf	(main@Vout+1)^080h,w
  1255  0E87  0857               	movwf	(___flge@ff1+1)
  1256  0E88  00F1               	movf	(main@Vout)^080h,w
  1257  0E89  0856               	movwf	(___flge@ff1)
  1258  0E8A  00F0               
  1259                           	movlw	0x3f
  1260  0E8B  303F               	movwf	(___flge@ff2+3)
  1261  0E8C  00F7               	movlw	0x80
  1262  0E8D  3080               	movwf	(___flge@ff2+2)
  1263  0E8E  00F6               	movlw	0x0
  1264  0E8F  3000               	movwf	(___flge@ff2+1)
  1265  0E90  00F5               	movlw	0x0
  1266  0E91  3000               	movwf	(___flge@ff2)
  1267  0E92  00F4               
  1268                           	fcall	___flge
  1269  0E93  120A  158A  22C6  120A  158A  	btfsc	status,0
  1270  0E98  1803               	goto	u3391
  1271  0E99  2E9B               	goto	u3390
  1272  0E9A  2E9C               u3391:
  1273  0E9B                     	goto	l2093
  1274  0E9B  2F36               u3390:
  1275  0E9C                     	line	42
  1276                           	
  1277                           l2083:	
  1278  0E9C                     ;cau5.c: 42: temp = (Re_Vout * 1000);
  1279                           	bsf	status, 5	;RP0=1, select bank1
  1280  0E9C  1683               	bcf	status, 6	;RP1=0, select bank1
  1281  0E9D  1303               	movf	(main@Re_Vout+3)^080h,w
  1282  0E9E  085D               	bcf	status, 5	;RP0=0, select bank0
  1283  0E9F  1283               	bcf	status, 6	;RP1=0, select bank0
  1284  0EA0  1303               	movwf	(___flmul@a+3)
  1285  0EA1  00A7               	bsf	status, 5	;RP0=1, select bank1
  1286  0EA2  1683               	bcf	status, 6	;RP1=0, select bank1
  1287  0EA3  1303               	movf	(main@Re_Vout+2)^080h,w
  1288  0EA4  085C               	bcf	status, 5	;RP0=0, select bank0
  1289  0EA5  1283               	bcf	status, 6	;RP1=0, select bank0
  1290  0EA6  1303               	movwf	(___flmul@a+2)
  1291  0EA7  00A6               	bsf	status, 5	;RP0=1, select bank1
  1292  0EA8  1683               	bcf	status, 6	;RP1=0, select bank1
  1293  0EA9  1303               	movf	(main@Re_Vout+1)^080h,w
  1294  0EAA  085B               	bcf	status, 5	;RP0=0, select bank0
  1295  0EAB  1283               	bcf	status, 6	;RP1=0, select bank0
  1296  0EAC  1303               	movwf	(___flmul@a+1)
  1297  0EAD  00A5               	bsf	status, 5	;RP0=1, select bank1
  1298  0EAE  1683               	bcf	status, 6	;RP1=0, select bank1
  1299  0EAF  1303               	movf	(main@Re_Vout)^080h,w
  1300  0EB0  085A               	bcf	status, 5	;RP0=0, select bank0
  1301  0EB1  1283               	bcf	status, 6	;RP1=0, select bank0
  1302  0EB2  1303               	movwf	(___flmul@a)
  1303  0EB3  00A4               
  1304                           	movlw	0x44
  1305  0EB4  3044               	movwf	(___flmul@b+3)
  1306  0EB5  00A3               	movlw	0x7a
  1307  0EB6  307A               	movwf	(___flmul@b+2)
  1308  0EB7  00A2               	movlw	0x0
  1309  0EB8  3000               	movwf	(___flmul@b+1)
  1310  0EB9  00A1               	movlw	0x0
  1311  0EBA  3000               	movwf	(___flmul@b)
  1312  0EBB  00A0               
  1313                           	fcall	___flmul
  1314  0EBC  120A  118A  20EE  120A  158A  	bcf	status, 5	;RP0=0, select bank0
  1315  0EC1  1283               	bcf	status, 6	;RP1=0, select bank0
  1316  0EC2  1303               	movf	(3+(?___flmul)),w
  1317  0EC3  0823               	movwf	(___fltol@f1+3)
  1318  0EC4  00B8               	movf	(2+(?___flmul)),w
  1319  0EC5  0822               	movwf	(___fltol@f1+2)
  1320  0EC6  00B7               	movf	(1+(?___flmul)),w
  1321  0EC7  0821               	movwf	(___fltol@f1+1)
  1322  0EC8  00B6               	movf	(0+(?___flmul)),w
  1323  0EC9  0820               	movwf	(___fltol@f1)
  1324  0ECA  00B5               
  1325                           	fcall	___fltol
  1326  0ECB  120A  158A  222A  120A  158A  	bcf	status, 5	;RP0=0, select bank0
  1327  0ED0  1283               	bcf	status, 6	;RP1=0, select bank0
  1328  0ED1  1303               	movf	(1+(?___fltol)),w
  1329  0ED2  0836               	bsf	status, 5	;RP0=1, select bank1
  1330  0ED3  1683               	bcf	status, 6	;RP1=0, select bank1
  1331  0ED4  1303               	movwf	(main@temp+1)^080h
  1332  0ED5  00E1               	bcf	status, 5	;RP0=0, select bank0
  1333  0ED6  1283               	bcf	status, 6	;RP1=0, select bank0
  1334  0ED7  1303               	movf	(0+(?___fltol)),w
  1335  0ED8  0835               	bsf	status, 5	;RP0=1, select bank1
  1336  0ED9  1683               	bcf	status, 6	;RP1=0, select bank1
  1337  0EDA  1303               	movwf	(main@temp)^080h
  1338  0EDB  00E0               	line	43
  1339                           	
  1340                           l2085:	
  1341  0EDC                     ;cau5.c: 43: TR = (temp % 100) % 10;
  1342                           	movf	(main@temp+1)^080h,w
  1343  0EDC  0861               	movwf	(___lwmod@dividend+1)
  1344  0EDD  00F3               	movf	(main@temp)^080h,w
  1345  0EDE  0860               	movwf	(___lwmod@dividend)
  1346  0EDF  00F2               	movlw	064h
  1347  0EE0  3064               	movwf	(___lwmod@divisor)
  1348  0EE1  00F0               	movlw	0
  1349  0EE2  3000               	movwf	((___lwmod@divisor))+1
  1350  0EE3  00F1               	fcall	___lwmod
  1351  0EE4  120A  158A  20AD  120A  158A  	movf	(1+(?___lwmod)),w
  1352  0EE9  0871               	bsf	status, 5	;RP0=1, select bank1
  1353  0EEA  1683               	bcf	status, 6	;RP1=0, select bank1
  1354  0EEB  1303               	movwf	(_main$543+1)^080h
  1355  0EEC  00DF               	movf	(0+(?___lwmod)),w
  1356  0EED  0870               	movwf	(_main$543)^080h
  1357  0EEE  00DE               	
  1358                           l2087:	
  1359  0EEF                     ;cau5.c: 43: TR = (temp % 100) % 10;
  1360                           	movlw	0Ah
  1361  0EEF  300A               	movwf	(___lwmod@divisor)
  1362  0EF0  00F0               	movlw	0
  1363  0EF1  3000               	movwf	((___lwmod@divisor))+1
  1364  0EF2  00F1               	movf	(_main$543+1)^080h,w
  1365  0EF3  085F               	movwf	(___lwmod@dividend+1)
  1366  0EF4  00F3               	movf	(_main$543)^080h,w
  1367  0EF5  085E               	movwf	(___lwmod@dividend)
  1368  0EF6  00F2               	fcall	___lwmod
  1369  0EF7  120A  158A  20AD  120A  158A  	movf	(1+(?___lwmod)),w
  1370  0EFC  0871               	bsf	status, 5	;RP0=1, select bank1
  1371  0EFD  1683               	bcf	status, 6	;RP1=0, select bank1
  1372  0EFE  1303               	movwf	(main@TR+1)^080h
  1373  0EFF  00D1               	movf	(0+(?___lwmod)),w
  1374  0F00  0870               	movwf	(main@TR)^080h
  1375  0F01  00D0               	line	44
  1376                           	
  1377                           l2089:	
  1378  0F02                     ;cau5.c: 44: CH = temp / 100;
  1379                           	movlw	064h
  1380  0F02  3064               	movwf	(___lwdiv@divisor)
  1381  0F03  00F6               	movlw	0
  1382  0F04  3000               	movwf	((___lwdiv@divisor))+1
  1383  0F05  00F7               	movf	(main@temp+1)^080h,w
  1384  0F06  0861               	movwf	(___lwdiv@dividend+1)
  1385  0F07  00F9               	movf	(main@temp)^080h,w
  1386  0F08  0860               	movwf	(___lwdiv@dividend)
  1387  0F09  00F8               	fcall	___lwdiv
  1388  0F0A  120A  158A  20EE  120A  158A  	movf	(1+(?___lwdiv)),w
  1389  0F0F  0877               	bsf	status, 5	;RP0=1, select bank1
  1390  0F10  1683               	bcf	status, 6	;RP1=0, select bank1
  1391  0F11  1303               	movwf	(main@CH+1)^080h
  1392  0F12  00D3               	movf	(0+(?___lwdiv)),w
  1393  0F13  0876               	movwf	(main@CH)^080h
  1394  0F14  00D2               	line	45
  1395                           	
  1396                           l2091:	
  1397  0F15                     ;cau5.c: 45: DV = (temp % 100) / 10;
  1398                           	movlw	0Ah
  1399  0F15  300A               	movwf	(___lwdiv@divisor)
  1400  0F16  00F6               	movlw	0
  1401  0F17  3000               	movwf	((___lwdiv@divisor))+1
  1402  0F18  00F7               	movf	(main@temp+1)^080h,w
  1403  0F19  0861               	movwf	(___lwmod@dividend+1)
  1404  0F1A  00F3               	movf	(main@temp)^080h,w
  1405  0F1B  0860               	movwf	(___lwmod@dividend)
  1406  0F1C  00F2               	movlw	064h
  1407  0F1D  3064               	movwf	(___lwmod@divisor)
  1408  0F1E  00F0               	movlw	0
  1409  0F1F  3000               	movwf	((___lwmod@divisor))+1
  1410  0F20  00F1               	fcall	___lwmod
  1411  0F21  120A  158A  20AD  120A  158A  	movf	(1+(?___lwmod)),w
  1412  0F26  0871               	movwf	(___lwdiv@dividend+1)
  1413  0F27  00F9               	movf	(0+(?___lwmod)),w
  1414  0F28  0870               	movwf	(___lwdiv@dividend)
  1415  0F29  00F8               	fcall	___lwdiv
  1416  0F2A  120A  158A  20EE  120A  158A  	movf	(1+(?___lwdiv)),w
  1417  0F2F  0877               	bsf	status, 5	;RP0=1, select bank1
  1418  0F30  1683               	bcf	status, 6	;RP1=0, select bank1
  1419  0F31  1303               	movwf	(main@DV+1)^080h
  1420  0F32  00D5               	movf	(0+(?___lwdiv)),w
  1421  0F33  0876               	movwf	(main@DV)^080h
  1422  0F34  00D4               	line	46
  1423                           ;cau5.c: 46: }else {
  1424                           	goto	l2103
  1425  0F35  2FD0               	
  1426                           l45:	
  1427  0F36                     	line	47
  1428                           	
  1429                           l2093:	
  1430  0F36                     ;cau5.c: 47: temp = Re_Vout * 100;
  1431                           	bsf	status, 5	;RP0=1, select bank1
  1432  0F36  1683               	bcf	status, 6	;RP1=0, select bank1
  1433  0F37  1303               	movf	(main@Re_Vout+3)^080h,w
  1434  0F38  085D               	bcf	status, 5	;RP0=0, select bank0
  1435  0F39  1283               	bcf	status, 6	;RP1=0, select bank0
  1436  0F3A  1303               	movwf	(___flmul@a+3)
  1437  0F3B  00A7               	bsf	status, 5	;RP0=1, select bank1
  1438  0F3C  1683               	bcf	status, 6	;RP1=0, select bank1
  1439  0F3D  1303               	movf	(main@Re_Vout+2)^080h,w
  1440  0F3E  085C               	bcf	status, 5	;RP0=0, select bank0
  1441  0F3F  1283               	bcf	status, 6	;RP1=0, select bank0
  1442  0F40  1303               	movwf	(___flmul@a+2)
  1443  0F41  00A6               	bsf	status, 5	;RP0=1, select bank1
  1444  0F42  1683               	bcf	status, 6	;RP1=0, select bank1
  1445  0F43  1303               	movf	(main@Re_Vout+1)^080h,w
  1446  0F44  085B               	bcf	status, 5	;RP0=0, select bank0
  1447  0F45  1283               	bcf	status, 6	;RP1=0, select bank0
  1448  0F46  1303               	movwf	(___flmul@a+1)
  1449  0F47  00A5               	bsf	status, 5	;RP0=1, select bank1
  1450  0F48  1683               	bcf	status, 6	;RP1=0, select bank1
  1451  0F49  1303               	movf	(main@Re_Vout)^080h,w
  1452  0F4A  085A               	bcf	status, 5	;RP0=0, select bank0
  1453  0F4B  1283               	bcf	status, 6	;RP1=0, select bank0
  1454  0F4C  1303               	movwf	(___flmul@a)
  1455  0F4D  00A4               
  1456                           	movlw	0x42
  1457  0F4E  3042               	movwf	(___flmul@b+3)
  1458  0F4F  00A3               	movlw	0xc8
  1459  0F50  30C8               	movwf	(___flmul@b+2)
  1460  0F51  00A2               	movlw	0x0
  1461  0F52  3000               	movwf	(___flmul@b+1)
  1462  0F53  00A1               	movlw	0x0
  1463  0F54  3000               	movwf	(___flmul@b)
  1464  0F55  00A0               
  1465                           	fcall	___flmul
  1466  0F56  120A  118A  20EE  120A  158A  	bcf	status, 5	;RP0=0, select bank0
  1467  0F5B  1283               	bcf	status, 6	;RP1=0, select bank0
  1468  0F5C  1303               	movf	(3+(?___flmul)),w
  1469  0F5D  0823               	movwf	(___fltol@f1+3)
  1470  0F5E  00B8               	movf	(2+(?___flmul)),w
  1471  0F5F  0822               	movwf	(___fltol@f1+2)
  1472  0F60  00B7               	movf	(1+(?___flmul)),w
  1473  0F61  0821               	movwf	(___fltol@f1+1)
  1474  0F62  00B6               	movf	(0+(?___flmul)),w
  1475  0F63  0820               	movwf	(___fltol@f1)
  1476  0F64  00B5               
  1477                           	fcall	___fltol
  1478  0F65  120A  158A  222A  120A  158A  	bcf	status, 5	;RP0=0, select bank0
  1479  0F6A  1283               	bcf	status, 6	;RP1=0, select bank0
  1480  0F6B  1303               	movf	(1+(?___fltol)),w
  1481  0F6C  0836               	bsf	status, 5	;RP0=1, select bank1
  1482  0F6D  1683               	bcf	status, 6	;RP1=0, select bank1
  1483  0F6E  1303               	movwf	(main@temp+1)^080h
  1484  0F6F  00E1               	bcf	status, 5	;RP0=0, select bank0
  1485  0F70  1283               	bcf	status, 6	;RP1=0, select bank0
  1486  0F71  1303               	movf	(0+(?___fltol)),w
  1487  0F72  0835               	bsf	status, 5	;RP0=1, select bank1
  1488  0F73  1683               	bcf	status, 6	;RP1=0, select bank1
  1489  0F74  1303               	movwf	(main@temp)^080h
  1490  0F75  00E0               	line	48
  1491                           	
  1492                           l2095:	
  1493  0F76                     ;cau5.c: 48: TR = temp / 100;
  1494                           	movlw	064h
  1495  0F76  3064               	movwf	(___lwdiv@divisor)
  1496  0F77  00F6               	movlw	0
  1497  0F78  3000               	movwf	((___lwdiv@divisor))+1
  1498  0F79  00F7               	movf	(main@temp+1)^080h,w
  1499  0F7A  0861               	movwf	(___lwdiv@dividend+1)
  1500  0F7B  00F9               	movf	(main@temp)^080h,w
  1501  0F7C  0860               	movwf	(___lwdiv@dividend)
  1502  0F7D  00F8               	fcall	___lwdiv
  1503  0F7E  120A  158A  20EE  120A  158A  	movf	(1+(?___lwdiv)),w
  1504  0F83  0877               	bsf	status, 5	;RP0=1, select bank1
  1505  0F84  1683               	bcf	status, 6	;RP1=0, select bank1
  1506  0F85  1303               	movwf	(main@TR+1)^080h
  1507  0F86  00D1               	movf	(0+(?___lwdiv)),w
  1508  0F87  0876               	movwf	(main@TR)^080h
  1509  0F88  00D0               	line	49
  1510                           	
  1511                           l2097:	
  1512  0F89                     ;cau5.c: 49: CH = (temp % 100) / 10;
  1513                           	movlw	0Ah
  1514  0F89  300A               	movwf	(___lwdiv@divisor)
  1515  0F8A  00F6               	movlw	0
  1516  0F8B  3000               	movwf	((___lwdiv@divisor))+1
  1517  0F8C  00F7               	movf	(main@temp+1)^080h,w
  1518  0F8D  0861               	movwf	(___lwmod@dividend+1)
  1519  0F8E  00F3               	movf	(main@temp)^080h,w
  1520  0F8F  0860               	movwf	(___lwmod@dividend)
  1521  0F90  00F2               	movlw	064h
  1522  0F91  3064               	movwf	(___lwmod@divisor)
  1523  0F92  00F0               	movlw	0
  1524  0F93  3000               	movwf	((___lwmod@divisor))+1
  1525  0F94  00F1               	fcall	___lwmod
  1526  0F95  120A  158A  20AD  120A  158A  	movf	(1+(?___lwmod)),w
  1527  0F9A  0871               	movwf	(___lwdiv@dividend+1)
  1528  0F9B  00F9               	movf	(0+(?___lwmod)),w
  1529  0F9C  0870               	movwf	(___lwdiv@dividend)
  1530  0F9D  00F8               	fcall	___lwdiv
  1531  0F9E  120A  158A  20EE  120A  158A  	movf	(1+(?___lwdiv)),w
  1532  0FA3  0877               	bsf	status, 5	;RP0=1, select bank1
  1533  0FA4  1683               	bcf	status, 6	;RP1=0, select bank1
  1534  0FA5  1303               	movwf	(main@CH+1)^080h
  1535  0FA6  00D3               	movf	(0+(?___lwdiv)),w
  1536  0FA7  0876               	movwf	(main@CH)^080h
  1537  0FA8  00D2               	line	50
  1538                           	
  1539                           l2099:	
  1540  0FA9                     ;cau5.c: 50: DV = (temp % 100) % 10;
  1541                           	movf	(main@temp+1)^080h,w
  1542  0FA9  0861               	movwf	(___lwmod@dividend+1)
  1543  0FAA  00F3               	movf	(main@temp)^080h,w
  1544  0FAB  0860               	movwf	(___lwmod@dividend)
  1545  0FAC  00F2               	movlw	064h
  1546  0FAD  3064               	movwf	(___lwmod@divisor)
  1547  0FAE  00F0               	movlw	0
  1548  0FAF  3000               	movwf	((___lwmod@divisor))+1
  1549  0FB0  00F1               	fcall	___lwmod
  1550  0FB1  120A  158A  20AD  120A  158A  	movf	(1+(?___lwmod)),w
  1551  0FB6  0871               	bsf	status, 5	;RP0=1, select bank1
  1552  0FB7  1683               	bcf	status, 6	;RP1=0, select bank1
  1553  0FB8  1303               	movwf	(_main$543+1)^080h
  1554  0FB9  00DF               	movf	(0+(?___lwmod)),w
  1555  0FBA  0870               	movwf	(_main$543)^080h
  1556  0FBB  00DE               	
  1557                           l2101:	
  1558  0FBC                     ;cau5.c: 50: DV = (temp % 100) % 10;
  1559                           	movlw	0Ah
  1560  0FBC  300A               	movwf	(___lwmod@divisor)
  1561  0FBD  00F0               	movlw	0
  1562  0FBE  3000               	movwf	((___lwmod@divisor))+1
  1563  0FBF  00F1               	movf	(_main$543+1)^080h,w
  1564  0FC0  085F               	movwf	(___lwmod@dividend+1)
  1565  0FC1  00F3               	movf	(_main$543)^080h,w
  1566  0FC2  085E               	movwf	(___lwmod@dividend)
  1567  0FC3  00F2               	fcall	___lwmod
  1568  0FC4  120A  158A  20AD  120A  158A  	movf	(1+(?___lwmod)),w
  1569  0FC9  0871               	bsf	status, 5	;RP0=1, select bank1
  1570  0FCA  1683               	bcf	status, 6	;RP1=0, select bank1
  1571  0FCB  1303               	movwf	(main@DV+1)^080h
  1572  0FCC  00D5               	movf	(0+(?___lwmod)),w
  1573  0FCD  0870               	movwf	(main@DV)^080h
  1574  0FCE  00D4               	goto	l2103
  1575  0FCF  2FD0               	line	51
  1576                           	
  1577                           l46:	
  1578  0FD0                     	line	52
  1579                           	
  1580                           l2103:	
  1581  0FD0                     ;cau5.c: 51: }
  1582                           ;cau5.c: 52: PORTC = led[TR];
  1583                           	movf	(main@TR)^080h,w
  1584  0FD0  0850               	movwf	(??_main+0)^080h+0
  1585  0FD1  00CA               	addwf	(??_main+0)^080h+0,w
  1586  0FD2  074A               	addlw	low((((main@led)-__stringbase)|8000h))
  1587  0FD3  3E01               	movwf	fsr0
  1588  0FD4  0084               	fcall	stringdir
  1589  0FD5  120A  118A  2003  120A  158A  	bcf	status, 5	;RP0=0, select bank0
  1590  0FDA  1283               	bcf	status, 6	;RP1=0, select bank0
  1591  0FDB  1303               	movwf	(7)	;volatile
  1592  0FDC  0087               	line	53
  1593                           	
  1594                           l2105:	
  1595  0FDD                     ;cau5.c: 53: PORTD = led[CH];
  1596                           	bsf	status, 5	;RP0=1, select bank1
  1597  0FDD  1683               	bcf	status, 6	;RP1=0, select bank1
  1598  0FDE  1303               	movf	(main@CH)^080h,w
  1599  0FDF  0852               	movwf	(??_main+0)^080h+0
  1600  0FE0  00CA               	addwf	(??_main+0)^080h+0,w
  1601  0FE1  074A               	addlw	low((((main@led)-__stringbase)|8000h))
  1602  0FE2  3E01               	movwf	fsr0
  1603  0FE3  0084               	fcall	stringdir
  1604  0FE4  120A  118A  2003  120A  158A  	bcf	status, 5	;RP0=0, select bank0
  1605  0FE9  1283               	bcf	status, 6	;RP1=0, select bank0
  1606  0FEA  1303               	movwf	(8)	;volatile
  1607  0FEB  0088               	line	54
  1608                           	
  1609                           l2107:	
  1610  0FEC                     ;cau5.c: 54: PORTB = led[DV];
  1611                           	bsf	status, 5	;RP0=1, select bank1
  1612  0FEC  1683               	bcf	status, 6	;RP1=0, select bank1
  1613  0FED  1303               	movf	(main@DV)^080h,w
  1614  0FEE  0854               	movwf	(??_main+0)^080h+0
  1615  0FEF  00CA               	addwf	(??_main+0)^080h+0,w
  1616  0FF0  074A               	addlw	low((((main@led)-__stringbase)|8000h))
  1617  0FF1  3E01               	movwf	fsr0
  1618  0FF2  0084               	fcall	stringdir
  1619  0FF3  120A  118A  2003  120A  158A  	bcf	status, 5	;RP0=0, select bank0
  1620  0FF8  1283               	bcf	status, 6	;RP1=0, select bank0
  1621  0FF9  1303               	movwf	(6)	;volatile
  1622  0FFA  0086               	goto	l2071
  1623  0FFB  2DAC               	line	55
  1624                           	
  1625                           l47:	
  1626  0FFC                     	line	34
  1627                           	goto	l2071
  1628  0FFC  2DAC               	
  1629                           l48:	
  1630  0FFD                     	line	56
  1631                           	
  1632                           l49:	
  1633  0FFD                     	global	start
  1634                           	ljmp	start
  1635  0FFD  120A  118A  2800   	opt stack 0
  1636                           GLOBAL	__end_of_main
  1637                           	__end_of_main:
  1638  1000                     	signat	_main,89
  1639                           	global	_round
  1640                           
  1641 ;; *************** function _round *****************
  1642 ;; Defined at:
  1643 ;;		line 6 in file "C:\Program Files (x86)\Microchip\xc8\v1.45\sources\common\round.c"
  1644 ;; Parameters:    Size  Location     Type
  1645 ;;  x               4   73[BANK0 ] void 
  1646 ;; Auto vars:     Size  Location     Type
  1647 ;;  f               4   12[BANK1 ] void 
  1648 ;; Return value:  Size  Location     Type
  1649 ;;                  4   73[BANK0 ] void 
  1650 ;; Registers used:
  1651 ;;		wreg, fsr0l, fsr0h, status,2, status,0, btemp+1, pclath, cstack
  1652 ;; Tracked objects:
  1653 ;;		On entry : 0/0
  1654 ;;		On exit  : 0/0
  1655 ;;		Unchanged: 0/0
  1656 ;; Data sizes:     COMMON   BANK0   BANK1   BANK3   BANK2
  1657 ;;      Params:         0       4       0       0       0
  1658 ;;      Locals:         0       0       4       0       0
  1659 ;;      Temps:          0       0       0       0       0
  1660 ;;      Totals:         0       4       4       0       0
  1661 ;;Total ram usage:        8 bytes
  1662 ;; Hardware stack levels used:    1
  1663 ;; Hardware stack levels required when called:    2
  1664 ;; This function calls:
  1665 ;;		___fladd
  1666 ;;		___flneg
  1667 ;;		_trunc
  1668 ;; This function is called by:
  1669 ;;		_main
  1670 ;; This function uses a non-reentrant model
  1671 ;;
  1672                           psect	text1,local,class=CODE,delta=2,merge=1,group=2
  1673                           	file	"C:\Program Files (x86)\Microchip\xc8\v1.45\sources\common\round.c"
  1674                           	line	6
  1675                           global __ptext1
  1676                           __ptext1:	;psect for function _round
  1677  0997                     psect	text1
  1678                           	file	"C:\Program Files (x86)\Microchip\xc8\v1.45\sources\common\round.c"
  1679                           	line	6
  1680                           	global	__size_of_round
  1681                           	__size_of_round	equ	__end_of_round-_round
  1682  0093                     	
  1683                           _round:	
  1684  0997                     ;incstack = 0
  1685                           	opt	stack 5
  1686                           ; Regs used in _round: [wreg-fsr0h+status,2+status,0+btemp+1+pclath+cstack]
  1687                           	line	10
  1688                           	
  1689                           l1675:	
  1690  0997                     	bcf	status, 5	;RP0=0, select bank0
  1691  0997  1283               	bcf	status, 6	;RP1=0, select bank0
  1692  0998  1303               	movf	(round@x+3),w
  1693  0999  086C               	movwf	(___fladd@b+3)
  1694  099A  00E0               	movf	(round@x+2),w
  1695  099B  086B               	movwf	(___fladd@b+2)
  1696  099C  00DF               	movf	(round@x+1),w
  1697  099D  086A               	movwf	(___fladd@b+1)
  1698  099E  00DE               	movf	(round@x),w
  1699  099F  0869               	movwf	(___fladd@b)
  1700  09A0  00DD               
  1701                           	movf	(round@x+3),w
  1702  09A1  086C               	movwf	(trunc@x+3)
  1703  09A2  00D1               	movf	(round@x+2),w
  1704  09A3  086B               	movwf	(trunc@x+2)
  1705  09A4  00D0               	movf	(round@x+1),w
  1706  09A5  086A               	movwf	(trunc@x+1)
  1707  09A6  00CF               	movf	(round@x),w
  1708  09A7  0869               	movwf	(trunc@x)
  1709  09A8  00CE               
  1710                           	fcall	_trunc
  1711  09A9  120A  158A  2139  120A  158A  	bcf	status, 5	;RP0=0, select bank0
  1712  09AE  1283               	bcf	status, 6	;RP1=0, select bank0
  1713  09AF  1303               	movf	(3+(?_trunc)),w
  1714  09B0  0851               	movwf	(___flneg@f1+3)
  1715  09B1  00DC               	movf	(2+(?_trunc)),w
  1716  09B2  0850               	movwf	(___flneg@f1+2)
  1717  09B3  00DB               	movf	(1+(?_trunc)),w
  1718  09B4  084F               	movwf	(___flneg@f1+1)
  1719  09B5  00DA               	movf	(0+(?_trunc)),w
  1720  09B6  084E               	movwf	(___flneg@f1)
  1721  09B7  00D9               
  1722                           	fcall	___flneg
  1723  09B8  120A  158A  200D  120A  158A  	bcf	status, 5	;RP0=0, select bank0
  1724  09BD  1283               	bcf	status, 6	;RP1=0, select bank0
  1725  09BE  1303               	movf	(3+(?___flneg)),w
  1726  09BF  085C               	movwf	(___fladd@a+3)
  1727  09C0  00E4               	movf	(2+(?___flneg)),w
  1728  09C1  085B               	movwf	(___fladd@a+2)
  1729  09C2  00E3               	movf	(1+(?___flneg)),w
  1730  09C3  085A               	movwf	(___fladd@a+1)
  1731  09C4  00E2               	movf	(0+(?___flneg)),w
  1732  09C5  0859               	movwf	(___fladd@a)
  1733  09C6  00E1               
  1734                           	fcall	___fladd
  1735  09C7  120A  118A  2463  120A  158A  	bcf	status, 5	;RP0=0, select bank0
  1736  09CC  1283               	bcf	status, 6	;RP1=0, select bank0
  1737  09CD  1303               	movf	(3+(?___fladd)),w
  1738  09CE  0860               	bsf	status, 5	;RP0=1, select bank1
  1739  09CF  1683               	bcf	status, 6	;RP1=0, select bank1
  1740  09D0  1303               	movwf	(round@f+3)^080h
  1741  09D1  00AF               	bcf	status, 5	;RP0=0, select bank0
  1742  09D2  1283               	bcf	status, 6	;RP1=0, select bank0
  1743  09D3  1303               	movf	(2+(?___fladd)),w
  1744  09D4  085F               	bsf	status, 5	;RP0=1, select bank1
  1745  09D5  1683               	bcf	status, 6	;RP1=0, select bank1
  1746  09D6  1303               	movwf	(round@f+2)^080h
  1747  09D7  00AE               	bcf	status, 5	;RP0=0, select bank0
  1748  09D8  1283               	bcf	status, 6	;RP1=0, select bank0
  1749  09D9  1303               	movf	(1+(?___fladd)),w
  1750  09DA  085E               	bsf	status, 5	;RP0=1, select bank1
  1751  09DB  1683               	bcf	status, 6	;RP1=0, select bank1
  1752  09DC  1303               	movwf	(round@f+1)^080h
  1753  09DD  00AD               	bcf	status, 5	;RP0=0, select bank0
  1754  09DE  1283               	bcf	status, 6	;RP1=0, select bank0
  1755  09DF  1303               	movf	(0+(?___fladd)),w
  1756  09E0  085D               	bsf	status, 5	;RP0=1, select bank1
  1757  09E1  1683               	bcf	status, 6	;RP1=0, select bank1
  1758  09E2  1303               	movwf	(round@f)^080h
  1759  09E3  00AC               
  1760                           	line	11
  1761                           	
  1762                           l1677:	
  1763  09E4                     	movf	(round@f+3)^080h,w
  1764  09E4  082F               	bcf	status, 5	;RP0=0, select bank0
  1765  09E5  1283               	bcf	status, 6	;RP1=0, select bank0
  1766  09E6  1303               	movwf	(___fladd@b+3)
  1767  09E7  00E0               	bsf	status, 5	;RP0=1, select bank1
  1768  09E8  1683               	bcf	status, 6	;RP1=0, select bank1
  1769  09E9  1303               	movf	(round@f+2)^080h,w
  1770  09EA  082E               	bcf	status, 5	;RP0=0, select bank0
  1771  09EB  1283               	bcf	status, 6	;RP1=0, select bank0
  1772  09EC  1303               	movwf	(___fladd@b+2)
  1773  09ED  00DF               	bsf	status, 5	;RP0=1, select bank1
  1774  09EE  1683               	bcf	status, 6	;RP1=0, select bank1
  1775  09EF  1303               	movf	(round@f+1)^080h,w
  1776  09F0  082D               	bcf	status, 5	;RP0=0, select bank0
  1777  09F1  1283               	bcf	status, 6	;RP1=0, select bank0
  1778  09F2  1303               	movwf	(___fladd@b+1)
  1779  09F3  00DE               	bsf	status, 5	;RP0=1, select bank1
  1780  09F4  1683               	bcf	status, 6	;RP1=0, select bank1
  1781  09F5  1303               	movf	(round@f)^080h,w
  1782  09F6  082C               	bcf	status, 5	;RP0=0, select bank0
  1783  09F7  1283               	bcf	status, 6	;RP1=0, select bank0
  1784  09F8  1303               	movwf	(___fladd@b)
  1785  09F9  00DD               
  1786                           	movf	(round@x+3),w
  1787  09FA  086C               	movwf	(___fladd@a+3)
  1788  09FB  00E4               	movf	(round@x+2),w
  1789  09FC  086B               	movwf	(___fladd@a+2)
  1790  09FD  00E3               	movf	(round@x+1),w
  1791  09FE  086A               	movwf	(___fladd@a+1)
  1792  09FF  00E2               	movf	(round@x),w
  1793  0A00  0869               	movwf	(___fladd@a)
  1794  0A01  00E1               
  1795                           	fcall	___fladd
  1796  0A02  120A  118A  2463  120A  158A  	bcf	status, 5	;RP0=0, select bank0
  1797  0A07  1283               	bcf	status, 6	;RP1=0, select bank0
  1798  0A08  1303               	movf	(3+(?___fladd)),w
  1799  0A09  0860               	movwf	(round@x+3)
  1800  0A0A  00EC               	movf	(2+(?___fladd)),w
  1801  0A0B  085F               	movwf	(round@x+2)
  1802  0A0C  00EB               	movf	(1+(?___fladd)),w
  1803  0A0D  085E               	movwf	(round@x+1)
  1804  0A0E  00EA               	movf	(0+(?___fladd)),w
  1805  0A0F  085D               	movwf	(round@x)
  1806  0A10  00E9               
  1807                           	line	12
  1808                           	
  1809                           l1679:	
  1810  0A11                     	movf	(round@x+3),w
  1811  0A11  086C               	movwf	(trunc@x+3)
  1812  0A12  00D1               	movf	(round@x+2),w
  1813  0A13  086B               	movwf	(trunc@x+2)
  1814  0A14  00D0               	movf	(round@x+1),w
  1815  0A15  086A               	movwf	(trunc@x+1)
  1816  0A16  00CF               	movf	(round@x),w
  1817  0A17  0869               	movwf	(trunc@x)
  1818  0A18  00CE               
  1819                           	fcall	_trunc
  1820  0A19  120A  158A  2139  120A  158A  	bcf	status, 5	;RP0=0, select bank0
  1821  0A1E  1283               	bcf	status, 6	;RP1=0, select bank0
  1822  0A1F  1303               	movf	(3+(?_trunc)),w
  1823  0A20  0851               	movwf	(?_round+3)
  1824  0A21  00EC               	movf	(2+(?_trunc)),w
  1825  0A22  0850               	movwf	(?_round+2)
  1826  0A23  00EB               	movf	(1+(?_trunc)),w
  1827  0A24  084F               	movwf	(?_round+1)
  1828  0A25  00EA               	movf	(0+(?_trunc)),w
  1829  0A26  084E               	movwf	(?_round)
  1830  0A27  00E9               
  1831                           	goto	l363
  1832  0A28  2A29               	
  1833                           l1681:	
  1834  0A29                     	line	13
  1835                           	
  1836                           l363:	
  1837  0A29                     	return
  1838  0A29  0008               	opt stack 0
  1839                           GLOBAL	__end_of_round
  1840                           	__end_of_round:
  1841  0A2A                     	signat	_round,4220
  1842                           	global	_trunc
  1843                           
  1844 ;; *************** function _trunc *****************
  1845 ;; Defined at:
  1846 ;;		line 13 in file "C:\Program Files (x86)\Microchip\xc8\v1.45\sources\common\trunc.c"
  1847 ;; Parameters:    Size  Location     Type
  1848 ;;  x               4   46[BANK0 ] void 
  1849 ;; Auto vars:     Size  Location     Type
  1850 ;;  i               4   51[BANK0 ] void 
  1851 ;;  expon           2   55[BANK0 ] int 
  1852 ;; Return value:  Size  Location     Type
  1853 ;;                  4   46[BANK0 ] int 
  1854 ;; Registers used:
  1855 ;;		wreg, fsr0l, fsr0h, status,2, status,0, btemp+1, pclath, cstack
  1856 ;; Tracked objects:
  1857 ;;		On entry : 0/0
  1858 ;;		On exit  : 0/0
  1859 ;;		Unchanged: 0/0
  1860 ;; Data sizes:     COMMON   BANK0   BANK1   BANK3   BANK2
  1861 ;;      Params:         0       4       0       0       0
  1862 ;;      Locals:         0       6       0       0       0
  1863 ;;      Temps:          0       1       0       0       0
  1864 ;;      Totals:         0      11       0       0       0
  1865 ;;Total ram usage:       11 bytes
  1866 ;; Hardware stack levels used:    1
  1867 ;; Hardware stack levels required when called:    1
  1868 ;; This function calls:
  1869 ;;		___fltol
  1870 ;;		___xxtofl
  1871 ;;		_frexp
  1872 ;; This function is called by:
  1873 ;;		_round
  1874 ;; This function uses a non-reentrant model
  1875 ;;
  1876                           psect	text2,local,class=CODE,delta=2,merge=1,group=2
  1877                           	file	"C:\Program Files (x86)\Microchip\xc8\v1.45\sources\common\trunc.c"
  1878                           	line	13
  1879                           global __ptext2
  1880                           __ptext2:	;psect for function _trunc
  1881  0939                     psect	text2
  1882                           	file	"C:\Program Files (x86)\Microchip\xc8\v1.45\sources\common\trunc.c"
  1883                           	line	13
  1884                           	global	__size_of_trunc
  1885                           	__size_of_trunc	equ	__end_of_trunc-_trunc
  1886  005E                     	
  1887                           _trunc:	
  1888  0939                     ;incstack = 0
  1889                           	opt	stack 5
  1890                           ; Regs used in _trunc: [wreg-fsr0h+status,2+status,0+btemp+1+pclath+cstack]
  1891                           	line	18
  1892                           	
  1893                           l1449:	
  1894  0939                     	bcf	status, 5	;RP0=0, select bank0
  1895  0939  1283               	bcf	status, 6	;RP1=0, select bank0
  1896  093A  1303               	movf	(trunc@x+3),w
  1897  093B  0851               	movwf	(frexp@value+3)
  1898  093C  00F3               	movf	(trunc@x+2),w
  1899  093D  0850               	movwf	(frexp@value+2)
  1900  093E  00F2               	movf	(trunc@x+1),w
  1901  093F  084F               	movwf	(frexp@value+1)
  1902  0940  00F1               	movf	(trunc@x),w
  1903  0941  084E               	movwf	(frexp@value)
  1904  0942  00F0               
  1905                           	movlw	(low(trunc@expon|((0x0)<<8)))&0ffh
  1906  0943  3057               	movwf	(??_trunc+0)+0
  1907  0944  00D2               	movf	(??_trunc+0)+0,w
  1908  0945  0852               	movwf	(frexp@eptr)
  1909  0946  00F4               	fcall	_frexp
  1910  0947  120A  158A  206E  120A  158A  	line	19
  1911                           	
  1912                           l1451:	
  1913  094C                     	bcf	status, 5	;RP0=0, select bank0
  1914  094C  1283               	bcf	status, 6	;RP1=0, select bank0
  1915  094D  1303               	btfss	(trunc@expon+1),7
  1916  094E  1FD8               	goto	u1971
  1917  094F  2951               	goto	u1970
  1918  0950  2952               u1971:
  1919  0951                     	goto	l1457
  1920  0951  295C               u1970:
  1921  0952                     	line	20
  1922                           	
  1923                           l1453:	
  1924  0952                     	movlw	0x0
  1925  0952  3000               	movwf	(?_trunc+3)
  1926  0953  00D1               	movlw	0x0
  1927  0954  3000               	movwf	(?_trunc+2)
  1928  0955  00D0               	movlw	0x0
  1929  0956  3000               	movwf	(?_trunc+1)
  1930  0957  00CF               	movlw	0x0
  1931  0958  3000               	movwf	(?_trunc)
  1932  0959  00CE               
  1933                           	goto	l491
  1934  095A  2996               	
  1935                           l1455:	
  1936  095B                     	goto	l491
  1937  095B  2996               	
  1938                           l490:	
  1939  095C                     	line	21
  1940                           	
  1941                           l1457:	
  1942  095C                     	movlw	0
  1943  095C  3000               	subwf	(trunc@expon+1),w
  1944  095D  0258               	movlw	01Dh
  1945  095E  301D               	skipnz
  1946  095F  1903               	subwf	(trunc@expon),w
  1947  0960  0257               	skipc
  1948  0961  1C03               	goto	u1981
  1949  0962  2964               	goto	u1980
  1950  0963  2965               u1981:
  1951  0964                     	goto	l1461
  1952  0964  2966               u1980:
  1953  0965                     	line	22
  1954                           	
  1955                           l1459:	
  1956  0965                     	goto	l491
  1957  0965  2996               	
  1958                           l492:	
  1959  0966                     	line	23
  1960                           	
  1961                           l1461:	
  1962  0966                     	movf	(trunc@x+3),w
  1963  0966  0851               	movwf	(___fltol@f1+3)
  1964  0967  00B8               	movf	(trunc@x+2),w
  1965  0968  0850               	movwf	(___fltol@f1+2)
  1966  0969  00B7               	movf	(trunc@x+1),w
  1967  096A  084F               	movwf	(___fltol@f1+1)
  1968  096B  00B6               	movf	(trunc@x),w
  1969  096C  084E               	movwf	(___fltol@f1)
  1970  096D  00B5               
  1971                           	fcall	___fltol
  1972  096E  120A  158A  222A  120A  158A  	bcf	status, 5	;RP0=0, select bank0
  1973  0973  1283               	bcf	status, 6	;RP1=0, select bank0
  1974  0974  1303               	movf	(3+(?___fltol)),w
  1975  0975  0838               	movwf	(___xxtofl@val+3)
  1976  0976  00C3               	movf	(2+(?___fltol)),w
  1977  0977  0837               	movwf	(___xxtofl@val+2)
  1978  0978  00C2               	movf	(1+(?___fltol)),w
  1979  0979  0836               	movwf	(___xxtofl@val+1)
  1980  097A  00C1               	movf	(0+(?___fltol)),w
  1981  097B  0835               	movwf	(___xxtofl@val)
  1982  097C  00C0               
  1983                           	movlw	low(01h)
  1984  097D  3001               	fcall	___xxtofl
  1985  097E  120A  118A  202A  120A  158A  	bcf	status, 5	;RP0=0, select bank0
  1986  0983  1283               	bcf	status, 6	;RP1=0, select bank0
  1987  0984  1303               	movf	(3+(?___xxtofl)),w
  1988  0985  0843               	movwf	(trunc@i+3)
  1989  0986  00D6               	movf	(2+(?___xxtofl)),w
  1990  0987  0842               	movwf	(trunc@i+2)
  1991  0988  00D5               	movf	(1+(?___xxtofl)),w
  1992  0989  0841               	movwf	(trunc@i+1)
  1993  098A  00D4               	movf	(0+(?___xxtofl)),w
  1994  098B  0840               	movwf	(trunc@i)
  1995  098C  00D3               
  1996                           	line	24
  1997                           	
  1998                           l1463:	
  1999  098D                     	movf	(trunc@i+3),w
  2000  098D  0856               	movwf	(?_trunc+3)
  2001  098E  00D1               	movf	(trunc@i+2),w
  2002  098F  0855               	movwf	(?_trunc+2)
  2003  0990  00D0               	movf	(trunc@i+1),w
  2004  0991  0854               	movwf	(?_trunc+1)
  2005  0992  00CF               	movf	(trunc@i),w
  2006  0993  0853               	movwf	(?_trunc)
  2007  0994  00CE               
  2008                           	goto	l491
  2009  0995  2996               	
  2010                           l1465:	
  2011  0996                     	line	25
  2012                           	
  2013                           l491:	
  2014  0996                     	return
  2015  0996  0008               	opt stack 0
  2016                           GLOBAL	__end_of_trunc
  2017                           	__end_of_trunc:
  2018  0997                     	signat	_trunc,4220
  2019                           	global	_frexp
  2020                           
  2021 ;; *************** function _frexp *****************
  2022 ;; Defined at:
  2023 ;;		line 254 in file "C:\Program Files (x86)\Microchip\xc8\v1.45\sources\common\frexp.c"
  2024 ;; Parameters:    Size  Location     Type
  2025 ;;  value           4    0[COMMON] int 
  2026 ;;  eptr            1    4[COMMON] PTR int 
  2027 ;;		 -> trunc@expon(2), 
  2028 ;; Auto vars:     Size  Location     Type
  2029 ;;		None
  2030 ;; Return value:  Size  Location     Type
  2031 ;;                  4    0[COMMON] PTR int 
  2032 ;; Registers used:
  2033 ;;		wreg, fsr0l, fsr0h, status,2, status,0, btemp+1
  2034 ;; Tracked objects:
  2035 ;;		On entry : 0/0
  2036 ;;		On exit  : 0/0
  2037 ;;		Unchanged: 0/0
  2038 ;; Data sizes:     COMMON   BANK0   BANK1   BANK3   BANK2
  2039 ;;      Params:         5       0       0       0       0
  2040 ;;      Locals:         0       0       0       0       0
  2041 ;;      Temps:          2       0       0       0       0
  2042 ;;      Totals:         7       0       0       0       0
  2043 ;;Total ram usage:        7 bytes
  2044 ;; Hardware stack levels used:    1
  2045 ;; This function calls:
  2046 ;;		Nothing
  2047 ;; This function is called by:
  2048 ;;		_trunc
  2049 ;; This function uses a non-reentrant model
  2050 ;;
  2051                           psect	text3,local,class=CODE,delta=2,merge=1,group=2
  2052                           	file	"C:\Program Files (x86)\Microchip\xc8\v1.45\sources\common\frexp.c"
  2053                           	line	254
  2054                           global __ptext3
  2055                           __ptext3:	;psect for function _frexp
  2056  086E                     psect	text3
  2057                           	file	"C:\Program Files (x86)\Microchip\xc8\v1.45\sources\common\frexp.c"
  2058                           	line	254
  2059                           	global	__size_of_frexp
  2060                           	__size_of_frexp	equ	__end_of_frexp-_frexp
  2061  003F                     	
  2062                           _frexp:	
  2063  086E                     ;incstack = 0
  2064                           	opt	stack 5
  2065                           ; Regs used in _frexp: [wreg-fsr0h+status,2+status,0+btemp+1]
  2066                           	line	256
  2067                           	
  2068                           l1381:	
  2069  086E                     	movf	(frexp@value+3),w
  2070  086E  0873               	iorwf	(frexp@value+2),w
  2071  086F  0472               	iorwf	(frexp@value+1),w
  2072  0870  0471               	iorwf	(frexp@value),w
  2073  0871  0470               	skipz
  2074  0872  1D03               	goto	u1811
  2075  0873  2875               	goto	u1810
  2076  0874  2876               u1811:
  2077  0875                     	goto	l1387
  2078  0875  287E               u1810:
  2079  0876                     	line	257
  2080                           	
  2081                           l1383:	
  2082  0876                     	movf	(frexp@eptr),w
  2083  0876  0874               	movwf	fsr0
  2084  0877  0084               	bcf	status, 7	;select IRP bank0
  2085  0878  1383               	clrf	indf
  2086  0879  0180               	incf	fsr0,f
  2087  087A  0A84               	clrf	indf
  2088  087B  0180               	goto	l523
  2089  087C  28AC               	line	258
  2090                           	
  2091                           l1385:	
  2092  087D                     ;	Return value of _frexp is never used
  2093                           	goto	l523
  2094  087D  28AC               	line	259
  2095                           	
  2096                           l522:	
  2097  087E                     	line	261
  2098                           	
  2099                           l1387:	
  2100  087E                     	movf	0+(frexp@value)+03h,w
  2101  087E  0873               	andlw	(1<<7)-1
  2102  087F  397F               	movwf	(??_frexp+0)+0
  2103  0880  00F5               	clrf	(??_frexp+0)+0+1
  2104  0881  01F6               	clrc
  2105  0882  1003               	rlf	(??_frexp+0)+0,f
  2106  0883  0DF5               	rlf	(??_frexp+0)+1,f
  2107  0884  0DF6               	movf	(frexp@eptr),w
  2108  0885  0874               	movwf	fsr0
  2109  0886  0084               	movf	0+(??_frexp+0)+0,w
  2110  0887  0875               	bcf	status, 7	;select IRP bank0
  2111  0888  1383               	movwf	indf
  2112  0889  0080               	incf	fsr0,f
  2113  088A  0A84               	movf	1+(??_frexp+0)+0,w
  2114  088B  0876               	movwf	indf
  2115  088C  0080               	line	262
  2116                           	rlf	0+(frexp@value)+02h,w
  2117  088D  0D72               	rlf	0+(frexp@value)+02h,w
  2118  088E  0D72               	andlw	1
  2119  088F  3901               	movwf	(??_frexp+0)+0
  2120  0890  00F5               	clrf	(??_frexp+0)+0+1
  2121  0891  01F6               	movf	(frexp@eptr),w
  2122  0892  0874               	movwf	fsr0
  2123  0893  0084               	movf	0+(??_frexp+0)+0,w
  2124  0894  0875               	iorwf	indf,f
  2125  0895  0480               	incf	fsr0,f
  2126  0896  0A84               	movf	1+(??_frexp+0)+0,w
  2127  0897  0876               	iorwf	indf,f
  2128  0898  0480               	line	263
  2129                           	
  2130                           l1389:	
  2131  0899                     	movf	(frexp@eptr),w
  2132  0899  0874               	movwf	fsr0
  2133  089A  0084               	movlw	082h
  2134  089B  3082               	addwf	indf,f
  2135  089C  0780               	incfsz	fsr0,f
  2136  089D  0F84               	movf	indf,w
  2137  089E  0800               	skipnc
  2138  089F  1803               	incf	indf,w
  2139  08A0  0A00               	movwf	btemp+1
  2140  08A1  00FF               	movlw	0FFh
  2141  08A2  30FF               	addwf	btemp+1,w
  2142  08A3  077F               	movwf	indf
  2143  08A4  0080               	decf	fsr0,f
  2144  08A5  0384               	line	268
  2145                           	
  2146                           l1391:	
  2147  08A6                     	movf	0+(frexp@value)+03h,w
  2148  08A6  0873               	andlw	not (((1<<7)-1)<<0)
  2149  08A7  3980               	iorlw	(03Fh & ((1<<7)-1))<<0
  2150  08A8  383F               	movwf	0+(frexp@value)+03h
  2151  08A9  00F3               	line	269
  2152                           	
  2153                           l1393:	
  2154  08AA                     	bcf	0+(frexp@value)+02h,7
  2155  08AA  13F2               	goto	l523
  2156  08AB  28AC               	line	273
  2157                           	
  2158                           l1395:	
  2159  08AC                     	line	274
  2160                           ;	Return value of _frexp is never used
  2161                           	
  2162                           l523:	
  2163  08AC                     	return
  2164  08AC  0008               	opt stack 0
  2165                           GLOBAL	__end_of_frexp
  2166                           	__end_of_frexp:
  2167  08AD                     	signat	_frexp,8316
  2168                           	global	___xxtofl
  2169                           
  2170 ;; *************** function ___xxtofl *****************
  2171 ;; Defined at:
  2172 ;;		line 10 in file "C:\Program Files (x86)\Microchip\xc8\v1.45\sources\common\xxtofl.c"
  2173 ;; Parameters:    Size  Location     Type
  2174 ;;  sign            1    wreg     unsigned char 
  2175 ;;  val             4   32[BANK0 ] long 
  2176 ;; Auto vars:     Size  Location     Type
  2177 ;;  sign            1   40[BANK0 ] unsigned char 
  2178 ;;  arg             4   42[BANK0 ] unsigned long 
  2179 ;;  exp             1   41[BANK0 ] unsigned char 
  2180 ;; Return value:  Size  Location     Type
  2181 ;;                  4   32[BANK0 ] unsigned char 
  2182 ;; Registers used:
  2183 ;;		wreg, status,2, status,0
  2184 ;; Tracked objects:
  2185 ;;		On entry : 0/0
  2186 ;;		On exit  : 0/0
  2187 ;;		Unchanged: 0/0
  2188 ;; Data sizes:     COMMON   BANK0   BANK1   BANK3   BANK2
  2189 ;;      Params:         0       4       0       0       0
  2190 ;;      Locals:         0       6       0       0       0
  2191 ;;      Temps:          0       4       0       0       0
  2192 ;;      Totals:         0      14       0       0       0
  2193 ;;Total ram usage:       14 bytes
  2194 ;; Hardware stack levels used:    1
  2195 ;; This function calls:
  2196 ;;		Nothing
  2197 ;; This function is called by:
  2198 ;;		_main
  2199 ;;		_trunc
  2200 ;; This function uses a non-reentrant model
  2201 ;;
  2202                           psect	text4,local,class=CODE,delta=2,merge=1,group=2
  2203                           	file	"C:\Program Files (x86)\Microchip\xc8\v1.45\sources\common\xxtofl.c"
  2204                           	line	10
  2205                           global __ptext4
  2206                           __ptext4:	;psect for function ___xxtofl
  2207  002A                     psect	text4
  2208                           	file	"C:\Program Files (x86)\Microchip\xc8\v1.45\sources\common\xxtofl.c"
  2209                           	line	10
  2210                           	global	__size_of___xxtofl
  2211                           	__size_of___xxtofl	equ	__end_of___xxtofl-___xxtofl
  2212  00C4                     	
  2213                           ___xxtofl:	
  2214  002A                     ;incstack = 0
  2215                           	opt	stack 5
  2216                           ; Regs used in ___xxtofl: [wreg+status,2+status,0]
  2217                           ;___xxtofl@sign stored from wreg
  2218                           	bcf	status, 5	;RP0=0, select bank0
  2219  002A  1283               	bcf	status, 6	;RP1=0, select bank0
  2220  002B  1303               	movwf	(___xxtofl@sign)
  2221  002C  00C8               	line	15
  2222                           	
  2223                           l1397:	
  2224  002D                     	movf	((___xxtofl@sign)),w
  2225  002D  0848               	btfsc	status,2
  2226  002E  1903               	goto	u1821
  2227  002F  2831               	goto	u1820
  2228  0030  2832               u1821:
  2229  0031                     	goto	l1403
  2230  0031  2846               u1820:
  2231  0032                     	
  2232                           l1399:	
  2233  0032                     	btfss	(___xxtofl@val+3),7
  2234  0032  1FC3               	goto	u1831
  2235  0033  2835               	goto	u1830
  2236  0034  2836               u1831:
  2237  0035                     	goto	l1403
  2238  0035  2846               u1830:
  2239  0036                     	line	16
  2240                           	
  2241                           l1401:	
  2242  0036                     	comf	(___xxtofl@val)+0,w
  2243  0036  0940               	movwf	(___xxtofl@arg)
  2244  0037  00CA               	comf	(___xxtofl@val)+1,w
  2245  0038  0941               	movwf	(___xxtofl@arg+1)
  2246  0039  00CB               	comf	(___xxtofl@val)+2,w
  2247  003A  0942               	movwf	(___xxtofl@arg+2)
  2248  003B  00CC               	comf	(___xxtofl@val)+3,w
  2249  003C  0943               	movwf	(___xxtofl@arg+3)
  2250  003D  00CD               	incf	(___xxtofl@arg),f
  2251  003E  0ACA               	skipnz
  2252  003F  1903               	incf	(___xxtofl@arg+1),f
  2253  0040  0ACB               	skipnz
  2254  0041  1903               	incf	(___xxtofl@arg+2),f
  2255  0042  0ACC               	skipnz
  2256  0043  1903               	incf	(___xxtofl@arg+3),f
  2257  0044  0ACD               	line	17
  2258                           	goto	l496
  2259  0045  284E               	line	18
  2260                           	
  2261                           l495:	
  2262  0046                     	line	19
  2263                           	
  2264                           l1403:	
  2265  0046                     	movf	(___xxtofl@val+3),w
  2266  0046  0843               	movwf	(___xxtofl@arg+3)
  2267  0047  00CD               	movf	(___xxtofl@val+2),w
  2268  0048  0842               	movwf	(___xxtofl@arg+2)
  2269  0049  00CC               	movf	(___xxtofl@val+1),w
  2270  004A  0841               	movwf	(___xxtofl@arg+1)
  2271  004B  00CB               	movf	(___xxtofl@val),w
  2272  004C  0840               	movwf	(___xxtofl@arg)
  2273  004D  00CA               
  2274                           	line	20
  2275                           	
  2276                           l496:	
  2277  004E                     	line	21
  2278                           	movf	(___xxtofl@val+3),w
  2279  004E  0843               	iorwf	(___xxtofl@val+2),w
  2280  004F  0442               	iorwf	(___xxtofl@val+1),w
  2281  0050  0441               	iorwf	(___xxtofl@val),w
  2282  0051  0440               	skipz
  2283  0052  1D03               	goto	u1841
  2284  0053  2855               	goto	u1840
  2285  0054  2856               u1841:
  2286  0055                     	goto	l1409
  2287  0055  2860               u1840:
  2288  0056                     	line	22
  2289                           	
  2290                           l1405:	
  2291  0056                     	movlw	0x0
  2292  0056  3000               	movwf	(?___xxtofl+3)
  2293  0057  00C3               	movlw	0x0
  2294  0058  3000               	movwf	(?___xxtofl+2)
  2295  0059  00C2               	movlw	0x0
  2296  005A  3000               	movwf	(?___xxtofl+1)
  2297  005B  00C1               	movlw	0x0
  2298  005C  3000               	movwf	(?___xxtofl)
  2299  005D  00C0               
  2300                           	goto	l498
  2301  005E  28ED               	
  2302                           l1407:	
  2303  005F                     	goto	l498
  2304  005F  28ED               	
  2305                           l497:	
  2306  0060                     	line	23
  2307                           	
  2308                           l1409:	
  2309  0060                     	movlw	low(096h)
  2310  0060  3096               	movwf	(??___xxtofl+0)+0
  2311  0061  00C4               	movf	(??___xxtofl+0)+0,w
  2312  0062  0844               	movwf	(___xxtofl@exp)
  2313  0063  00C9               	line	24
  2314                           	goto	l1413
  2315  0064  2873               	
  2316                           l500:	
  2317  0065                     	line	25
  2318                           	
  2319                           l1411:	
  2320  0065                     	movlw	low(01h)
  2321  0065  3001               	movwf	(??___xxtofl+0)+0
  2322  0066  00C4               	movf	(??___xxtofl+0)+0,w
  2323  0067  0844               	addwf	(___xxtofl@exp),f
  2324  0068  07C9               	line	26
  2325                           	movlw	01h
  2326  0069  3001               u1855:
  2327  006A                     	clrc
  2328  006A  1003               	rrf	(___xxtofl@arg+3),f
  2329  006B  0CCD               	rrf	(___xxtofl@arg+2),f
  2330  006C  0CCC               	rrf	(___xxtofl@arg+1),f
  2331  006D  0CCB               	rrf	(___xxtofl@arg),f
  2332  006E  0CCA               	addlw	-1
  2333  006F  3EFF               	skipz
  2334  0070  1D03               	goto	u1855
  2335  0071  286A               
  2336                           	goto	l1413
  2337  0072  2873               	line	27
  2338                           	
  2339                           l499:	
  2340  0073                     	line	24
  2341                           	
  2342                           l1413:	
  2343  0073                     	movlw	high highword(-33554432)
  2344  0073  30FE               	andwf	(___xxtofl@arg+3),w
  2345  0074  054D               	btfss	status,2
  2346  0075  1D03               	goto	u1861
  2347  0076  2878               	goto	u1860
  2348  0077  2879               u1861:
  2349  0078                     	goto	l1411
  2350  0078  2865               u1860:
  2351  0079                     	goto	l502
  2352  0079  2896               	
  2353                           l501:	
  2354  007A                     	line	28
  2355                           	goto	l502
  2356  007A  2896               	
  2357                           l503:	
  2358  007B                     	line	29
  2359                           	
  2360                           l1415:	
  2361  007B                     	movlw	low(01h)
  2362  007B  3001               	movwf	(??___xxtofl+0)+0
  2363  007C  00C4               	movf	(??___xxtofl+0)+0,w
  2364  007D  0844               	addwf	(___xxtofl@exp),f
  2365  007E  07C9               	line	30
  2366                           	
  2367                           l1417:	
  2368  007F                     	movlw	01h
  2369  007F  3001               	addwf	(___xxtofl@arg),f
  2370  0080  07CA               	movlw	0
  2371  0081  3000               	skipnc
  2372  0082  1803               movlw 1
  2373  0083  3001               	addwf	(___xxtofl@arg+1),f
  2374  0084  07CB               	movlw	0
  2375  0085  3000               	skipnc
  2376  0086  1803               movlw 1
  2377  0087  3001               	addwf	(___xxtofl@arg+2),f
  2378  0088  07CC               	movlw	0
  2379  0089  3000               	skipnc
  2380  008A  1803               movlw 1
  2381  008B  3001               	addwf	(___xxtofl@arg+3),f
  2382  008C  07CD               	line	31
  2383                           	
  2384                           l1419:	
  2385  008D                     	movlw	01h
  2386  008D  3001               u1875:
  2387  008E                     	clrc
  2388  008E  1003               	rrf	(___xxtofl@arg+3),f
  2389  008F  0CCD               	rrf	(___xxtofl@arg+2),f
  2390  0090  0CCC               	rrf	(___xxtofl@arg+1),f
  2391  0091  0CCB               	rrf	(___xxtofl@arg),f
  2392  0092  0CCA               	addlw	-1
  2393  0093  3EFF               	skipz
  2394  0094  1D03               	goto	u1875
  2395  0095  288E               
  2396                           	line	32
  2397                           	
  2398                           l502:	
  2399  0096                     	line	28
  2400                           	movlw	high highword(-16777216)
  2401  0096  30FF               	andwf	(___xxtofl@arg+3),w
  2402  0097  054D               	btfss	status,2
  2403  0098  1D03               	goto	u1881
  2404  0099  289B               	goto	u1880
  2405  009A  289C               u1881:
  2406  009B                     	goto	l1415
  2407  009B  287B               u1880:
  2408  009C                     	goto	l1423
  2409  009C  28AA               	
  2410                           l504:	
  2411  009D                     	line	33
  2412                           	goto	l1423
  2413  009D  28AA               	
  2414                           l506:	
  2415  009E                     	line	34
  2416                           	
  2417                           l1421:	
  2418  009E                     	movlw	01h
  2419  009E  3001               	subwf	(___xxtofl@exp),f
  2420  009F  02C9               	line	35
  2421                           	movlw	01h
  2422  00A0  3001               	movwf	(??___xxtofl+0)+0
  2423  00A1  00C4               u1895:
  2424  00A2                     	clrc
  2425  00A2  1003               	rlf	(___xxtofl@arg),f
  2426  00A3  0DCA               	rlf	(___xxtofl@arg+1),f
  2427  00A4  0DCB               	rlf	(___xxtofl@arg+2),f
  2428  00A5  0DCC               	rlf	(___xxtofl@arg+3),f
  2429  00A6  0DCD               	decfsz	(??___xxtofl+0)+0
  2430  00A7  0BC4               	goto	u1895
  2431  00A8  28A2               	goto	l1423
  2432  00A9  28AA               	line	36
  2433                           	
  2434                           l505:	
  2435  00AA                     	line	33
  2436                           	
  2437                           l1423:	
  2438  00AA                     	btfsc	(___xxtofl@arg+2),(23)&7
  2439  00AA  1BCC               	goto	u1901
  2440  00AB  28AD               	goto	u1900
  2441  00AC  28AE               u1901:
  2442  00AD                     	goto	l509
  2443  00AD  28B5               u1900:
  2444  00AE                     	
  2445                           l1425:	
  2446  00AE                     	movlw	low(02h)
  2447  00AE  3002               	subwf	(___xxtofl@exp),w
  2448  00AF  0249               	skipnc
  2449  00B0  1803               	goto	u1911
  2450  00B1  28B3               	goto	u1910
  2451  00B2  28B4               u1911:
  2452  00B3                     	goto	l1421
  2453  00B3  289E               u1910:
  2454  00B4                     	goto	l509
  2455  00B4  28B5               	
  2456                           l508:	
  2457  00B5                     	
  2458                           l509:	
  2459  00B5                     	line	37
  2460                           	btfsc	(___xxtofl@exp),(0)&7
  2461  00B5  1849               	goto	u1921
  2462  00B6  28B8               	goto	u1920
  2463  00B7  28B9               u1921:
  2464  00B8                     	goto	l510
  2465  00B8  28C1               u1920:
  2466  00B9                     	line	38
  2467                           	
  2468                           l1427:	
  2469  00B9                     	movlw	0FFh
  2470  00B9  30FF               	andwf	(___xxtofl@arg),f
  2471  00BA  05CA               	movlw	0FFh
  2472  00BB  30FF               	andwf	(___xxtofl@arg+1),f
  2473  00BC  05CB               	movlw	07Fh
  2474  00BD  307F               	andwf	(___xxtofl@arg+2),f
  2475  00BE  05CC               	movlw	0FFh
  2476  00BF  30FF               	andwf	(___xxtofl@arg+3),f
  2477  00C0  05CD               	
  2478                           l510:	
  2479  00C1                     	line	39
  2480                           	clrc
  2481  00C1  1003               	rrf	(___xxtofl@exp),f
  2482  00C2  0CC9               
  2483                           	line	40
  2484                           	
  2485                           l1429:	
  2486  00C3                     	movf	(___xxtofl@exp),w
  2487  00C3  0849               	movwf	(??___xxtofl+0)+0
  2488  00C4  00C4               	clrf	(??___xxtofl+0)+0+1
  2489  00C5  01C5               	clrf	(??___xxtofl+0)+0+2
  2490  00C6  01C6               	clrf	(??___xxtofl+0)+0+3
  2491  00C7  01C7               	movlw	018h
  2492  00C8  3018               u1935:
  2493  00C9                     	clrc
  2494  00C9  1003               	rlf	(??___xxtofl+0)+0,f
  2495  00CA  0DC4               	rlf	(??___xxtofl+0)+1,f
  2496  00CB  0DC5               	rlf	(??___xxtofl+0)+2,f
  2497  00CC  0DC6               	rlf	(??___xxtofl+0)+3,f
  2498  00CD  0DC7               u1930:
  2499  00CE                     	addlw	-1
  2500  00CE  3EFF               	skipz
  2501  00CF  1D03               	goto	u1935
  2502  00D0  28C9               	movf	0+(??___xxtofl+0)+0,w
  2503  00D1  0844               	iorwf	(___xxtofl@arg),f
  2504  00D2  04CA               	movf	1+(??___xxtofl+0)+0,w
  2505  00D3  0845               	iorwf	(___xxtofl@arg+1),f
  2506  00D4  04CB               	movf	2+(??___xxtofl+0)+0,w
  2507  00D5  0846               	iorwf	(___xxtofl@arg+2),f
  2508  00D6  04CC               	movf	3+(??___xxtofl+0)+0,w
  2509  00D7  0847               	iorwf	(___xxtofl@arg+3),f
  2510  00D8  04CD               	line	41
  2511                           	
  2512                           l1431:	
  2513  00D9                     	movf	((___xxtofl@sign)),w
  2514  00D9  0848               	btfsc	status,2
  2515  00DA  1903               	goto	u1941
  2516  00DB  28DD               	goto	u1940
  2517  00DC  28DE               u1941:
  2518  00DD                     	goto	l1437
  2519  00DD  28E4               u1940:
  2520  00DE                     	
  2521                           l1433:	
  2522  00DE                     	btfss	(___xxtofl@val+3),7
  2523  00DE  1FC3               	goto	u1951
  2524  00DF  28E1               	goto	u1950
  2525  00E0  28E2               u1951:
  2526  00E1                     	goto	l1437
  2527  00E1  28E4               u1950:
  2528  00E2                     	line	42
  2529                           	
  2530                           l1435:	
  2531  00E2                     	bsf	(___xxtofl@arg)+(31/8),(31)&7
  2532  00E2  17CD               	goto	l1437
  2533  00E3  28E4               	
  2534                           l511:	
  2535  00E4                     	line	43
  2536                           	
  2537                           l1437:	
  2538  00E4                     	movf	(___xxtofl@arg+3),w
  2539  00E4  084D               	movwf	(?___xxtofl+3)
  2540  00E5  00C3               	movf	(___xxtofl@arg+2),w
  2541  00E6  084C               	movwf	(?___xxtofl+2)
  2542  00E7  00C2               	movf	(___xxtofl@arg+1),w
  2543  00E8  084B               	movwf	(?___xxtofl+1)
  2544  00E9  00C1               	movf	(___xxtofl@arg),w
  2545  00EA  084A               	movwf	(?___xxtofl)
  2546  00EB  00C0               
  2547                           	goto	l498
  2548  00EC  28ED               	
  2549                           l1439:	
  2550  00ED                     	line	44
  2551                           	
  2552                           l498:	
  2553  00ED                     	return
  2554  00ED  0008               	opt stack 0
  2555                           GLOBAL	__end_of___xxtofl
  2556                           	__end_of___xxtofl:
  2557  00EE                     	signat	___xxtofl,8316
  2558                           	global	___fltol
  2559                           
  2560 ;; *************** function ___fltol *****************
  2561 ;; Defined at:
  2562 ;;		line 43 in file "C:\Program Files (x86)\Microchip\xc8\v1.45\sources\common\fltol.c"
  2563 ;; Parameters:    Size  Location     Type
  2564 ;;  f1              4   21[BANK0 ] unsigned char 
  2565 ;; Auto vars:     Size  Location     Type
  2566 ;;  exp1            1   31[BANK0 ] unsigned char 
  2567 ;;  sign1           1   30[BANK0 ] unsigned char 
  2568 ;; Return value:  Size  Location     Type
  2569 ;;                  4   21[BANK0 ] long 
  2570 ;; Registers used:
  2571 ;;		wreg, status,2, status,0
  2572 ;; Tracked objects:
  2573 ;;		On entry : 0/0
  2574 ;;		On exit  : 0/0
  2575 ;;		Unchanged: 0/0
  2576 ;; Data sizes:     COMMON   BANK0   BANK1   BANK3   BANK2
  2577 ;;      Params:         0       4       0       0       0
  2578 ;;      Locals:         0       2       0       0       0
  2579 ;;      Temps:          0       5       0       0       0
  2580 ;;      Totals:         0      11       0       0       0
  2581 ;;Total ram usage:       11 bytes
  2582 ;; Hardware stack levels used:    1
  2583 ;; This function calls:
  2584 ;;		Nothing
  2585 ;; This function is called by:
  2586 ;;		_main
  2587 ;;		_trunc
  2588 ;; This function uses a non-reentrant model
  2589 ;;
  2590                           psect	text5,local,class=CODE,delta=2,merge=1,group=2
  2591                           	file	"C:\Program Files (x86)\Microchip\xc8\v1.45\sources\common\fltol.c"
  2592                           	line	43
  2593                           global __ptext5
  2594                           __ptext5:	;psect for function ___fltol
  2595  0A2A                     psect	text5
  2596                           	file	"C:\Program Files (x86)\Microchip\xc8\v1.45\sources\common\fltol.c"
  2597                           	line	43
  2598                           	global	__size_of___fltol
  2599                           	__size_of___fltol	equ	__end_of___fltol-___fltol
  2600  009C                     	
  2601                           ___fltol:	
  2602  0A2A                     ;incstack = 0
  2603                           	opt	stack 5
  2604                           ; Regs used in ___fltol: [wreg+status,2+status,0]
  2605                           	line	47
  2606                           	
  2607                           l1345:	
  2608  0A2A                     	bcf	status, 5	;RP0=0, select bank0
  2609  0A2A  1283               	bcf	status, 6	;RP1=0, select bank0
  2610  0A2B  1303               	movf	(___fltol@f1),w
  2611  0A2C  0835               	movwf	(??___fltol+0)+0
  2612  0A2D  00B9               	movf	(___fltol@f1+1),w
  2613  0A2E  0836               	movwf	((??___fltol+0)+0+1)
  2614  0A2F  00BA               	movf	(___fltol@f1+2),w
  2615  0A30  0837               	movwf	((??___fltol+0)+0+2)
  2616  0A31  00BB               	movf	(___fltol@f1+3),w
  2617  0A32  0838               	movwf	((??___fltol+0)+0+3)
  2618  0A33  00BC               	clrc
  2619  0A34  1003               	rlf	(??___fltol+0)+2,w
  2620  0A35  0D3B               	rlf	(??___fltol+0)+3,w
  2621  0A36  0D3C               	movwf	(??___fltol+4)+0
  2622  0A37  00BD               	movf	(??___fltol+4)+0,w
  2623  0A38  083D               	movwf	(___fltol@exp1)
  2624  0A39  00BF               	movf	(((___fltol@exp1))),w
  2625  0A3A  083F               	btfss	status,2
  2626  0A3B  1D03               	goto	u1711
  2627  0A3C  2A3E               	goto	u1710
  2628  0A3D  2A3F               u1711:
  2629  0A3E                     	goto	l1351
  2630  0A3E  2A49               u1710:
  2631  0A3F                     	line	48
  2632                           	
  2633                           l1347:	
  2634  0A3F                     	movlw	high highword(0)
  2635  0A3F  3000               	movwf	(?___fltol+3)
  2636  0A40  00B8               	movlw	low highword(0)
  2637  0A41  3000               	movwf	(?___fltol+2)
  2638  0A42  00B7               	movlw	high(0)
  2639  0A43  3000               	movwf	(?___fltol+1)
  2640  0A44  00B6               	movlw	low(0)
  2641  0A45  3000               	movwf	(?___fltol)
  2642  0A46  00B5               
  2643                           	goto	l272
  2644  0A47  2AC5               	
  2645                           l1349:	
  2646  0A48                     	goto	l272
  2647  0A48  2AC5               	
  2648                           l271:	
  2649  0A49                     	line	49
  2650                           	
  2651                           l1351:	
  2652  0A49                     	movf	(___fltol@f1),w
  2653  0A49  0835               	movwf	(??___fltol+0)+0
  2654  0A4A  00B9               	movf	(___fltol@f1+1),w
  2655  0A4B  0836               	movwf	((??___fltol+0)+0+1)
  2656  0A4C  00BA               	movf	(___fltol@f1+2),w
  2657  0A4D  0837               	movwf	((??___fltol+0)+0+2)
  2658  0A4E  00BB               	movf	(___fltol@f1+3),w
  2659  0A4F  0838               	movwf	((??___fltol+0)+0+3)
  2660  0A50  00BC               	movlw	01Fh
  2661  0A51  301F               u1725:
  2662  0A52                     	clrc
  2663  0A52  1003               	rrf	(??___fltol+0)+3,f
  2664  0A53  0CBC               	rrf	(??___fltol+0)+2,f
  2665  0A54  0CBB               	rrf	(??___fltol+0)+1,f
  2666  0A55  0CBA               	rrf	(??___fltol+0)+0,f
  2667  0A56  0CB9               u1720:
  2668  0A57                     	addlw	-1
  2669  0A57  3EFF               	skipz
  2670  0A58  1D03               	goto	u1725
  2671  0A59  2A52               	movf	0+(??___fltol+0)+0,w
  2672  0A5A  0839               	movwf	(??___fltol+4)+0
  2673  0A5B  00BD               	movf	(??___fltol+4)+0,w
  2674  0A5C  083D               	movwf	(___fltol@sign1)
  2675  0A5D  00BE               	line	50
  2676                           	
  2677                           l1353:	
  2678  0A5E                     	bsf	(___fltol@f1)+(23/8),(23)&7
  2679  0A5E  17B7               	line	51
  2680                           	
  2681                           l1355:	
  2682  0A5F                     	movlw	0FFh
  2683  0A5F  30FF               	andwf	(___fltol@f1),f
  2684  0A60  05B5               	movlw	0FFh
  2685  0A61  30FF               	andwf	(___fltol@f1+1),f
  2686  0A62  05B6               	movlw	0FFh
  2687  0A63  30FF               	andwf	(___fltol@f1+2),f
  2688  0A64  05B7               	movlw	0
  2689  0A65  3000               	andwf	(___fltol@f1+3),f
  2690  0A66  05B8               	line	52
  2691                           	
  2692                           l1357:	
  2693  0A67                     	movlw	096h
  2694  0A67  3096               	subwf	(___fltol@exp1),f
  2695  0A68  02BF               	line	53
  2696                           	
  2697                           l1359:	
  2698  0A69                     	btfss	(___fltol@exp1),7
  2699  0A69  1FBF               	goto	u1731
  2700  0A6A  2A6C               	goto	u1730
  2701  0A6B  2A6D               u1731:
  2702  0A6C                     	goto	l1369
  2703  0A6C  2A92               u1730:
  2704  0A6D                     	line	54
  2705                           	
  2706                           l1361:	
  2707  0A6D                     	movf	(___fltol@exp1),w
  2708  0A6D  083F               	xorlw	80h
  2709  0A6E  3A80               	addlw	-((-23)^80h)
  2710  0A6F  3E97               	skipnc
  2711  0A70  1803               	goto	u1741
  2712  0A71  2A73               	goto	u1740
  2713  0A72  2A74               u1741:
  2714  0A73                     	goto	l1367
  2715  0A73  2A7F               u1740:
  2716  0A74                     	line	55
  2717                           	
  2718                           l1363:	
  2719  0A74                     	movlw	high highword(0)
  2720  0A74  3000               	movwf	(?___fltol+3)
  2721  0A75  00B8               	movlw	low highword(0)
  2722  0A76  3000               	movwf	(?___fltol+2)
  2723  0A77  00B7               	movlw	high(0)
  2724  0A78  3000               	movwf	(?___fltol+1)
  2725  0A79  00B6               	movlw	low(0)
  2726  0A7A  3000               	movwf	(?___fltol)
  2727  0A7B  00B5               
  2728                           	goto	l272
  2729  0A7C  2AC5               	
  2730                           l1365:	
  2731  0A7D                     	goto	l272
  2732  0A7D  2AC5               	
  2733                           l274:	
  2734  0A7E                     	goto	l1367
  2735  0A7E  2A7F               	line	56
  2736                           	
  2737                           l275:	
  2738  0A7F                     	line	57
  2739                           	
  2740                           l1367:	
  2741  0A7F                     	movlw	01h
  2742  0A7F  3001               u1755:
  2743  0A80                     	clrc
  2744  0A80  1003               	rrf	(___fltol@f1+3),f
  2745  0A81  0CB8               	rrf	(___fltol@f1+2),f
  2746  0A82  0CB7               	rrf	(___fltol@f1+1),f
  2747  0A83  0CB6               	rrf	(___fltol@f1),f
  2748  0A84  0CB5               	addlw	-1
  2749  0A85  3EFF               	skipz
  2750  0A86  1D03               	goto	u1755
  2751  0A87  2A80               
  2752                           	line	58
  2753                           	movlw	low(01h)
  2754  0A88  3001               	movwf	(??___fltol+0)+0
  2755  0A89  00B9               	movf	(??___fltol+0)+0,w
  2756  0A8A  0839               	addwf	(___fltol@exp1),f
  2757  0A8B  07BF               	btfss	status,2
  2758  0A8C  1D03               	goto	u1761
  2759  0A8D  2A8F               	goto	u1760
  2760  0A8E  2A90               u1761:
  2761  0A8F                     	goto	l1367
  2762  0A8F  2A7F               u1760:
  2763  0A90                     	goto	l1377
  2764  0A90  2AB5               	
  2765                           l276:	
  2766  0A91                     	line	59
  2767                           	goto	l1377
  2768  0A91  2AB5               	
  2769                           l273:	
  2770  0A92                     	line	60
  2771                           	
  2772                           l1369:	
  2773  0A92                     	movlw	low(020h)
  2774  0A92  3020               	subwf	(___fltol@exp1),w
  2775  0A93  023F               	skipc
  2776  0A94  1C03               	goto	u1771
  2777  0A95  2A97               	goto	u1770
  2778  0A96  2A98               u1771:
  2779  0A97                     	goto	l279
  2780  0A97  2AAE               u1770:
  2781  0A98                     	line	61
  2782                           	
  2783                           l1371:	
  2784  0A98                     	movlw	high highword(0)
  2785  0A98  3000               	movwf	(?___fltol+3)
  2786  0A99  00B8               	movlw	low highword(0)
  2787  0A9A  3000               	movwf	(?___fltol+2)
  2788  0A9B  00B7               	movlw	high(0)
  2789  0A9C  3000               	movwf	(?___fltol+1)
  2790  0A9D  00B6               	movlw	low(0)
  2791  0A9E  3000               	movwf	(?___fltol)
  2792  0A9F  00B5               
  2793                           	goto	l272
  2794  0AA0  2AC5               	
  2795                           l1373:	
  2796  0AA1                     	goto	l272
  2797  0AA1  2AC5               	
  2798                           l278:	
  2799  0AA2                     	line	62
  2800                           	goto	l279
  2801  0AA2  2AAE               	
  2802                           l280:	
  2803  0AA3                     	line	63
  2804                           	
  2805                           l1375:	
  2806  0AA3                     	movlw	01h
  2807  0AA3  3001               	movwf	(??___fltol+0)+0
  2808  0AA4  00B9               u1785:
  2809  0AA5                     	clrc
  2810  0AA5  1003               	rlf	(___fltol@f1),f
  2811  0AA6  0DB5               	rlf	(___fltol@f1+1),f
  2812  0AA7  0DB6               	rlf	(___fltol@f1+2),f
  2813  0AA8  0DB7               	rlf	(___fltol@f1+3),f
  2814  0AA9  0DB8               	decfsz	(??___fltol+0)+0
  2815  0AAA  0BB9               	goto	u1785
  2816  0AAB  2AA5               	line	64
  2817                           	movlw	01h
  2818  0AAC  3001               	subwf	(___fltol@exp1),f
  2819  0AAD  02BF               	line	65
  2820                           	
  2821                           l279:	
  2822  0AAE                     	line	62
  2823                           	movf	((___fltol@exp1)),w
  2824  0AAE  083F               	btfss	status,2
  2825  0AAF  1D03               	goto	u1791
  2826  0AB0  2AB2               	goto	u1790
  2827  0AB1  2AB3               u1791:
  2828  0AB2                     	goto	l1375
  2829  0AB2  2AA3               u1790:
  2830  0AB3                     	goto	l1377
  2831  0AB3  2AB5               	
  2832                           l281:	
  2833  0AB4                     	goto	l1377
  2834  0AB4  2AB5               	line	66
  2835                           	
  2836                           l277:	
  2837  0AB5                     	line	67
  2838                           	
  2839                           l1377:	
  2840  0AB5                     	movf	((___fltol@sign1)),w
  2841  0AB5  083E               	btfsc	status,2
  2842  0AB6  1903               	goto	u1801
  2843  0AB7  2AB9               	goto	u1800
  2844  0AB8  2ABA               u1801:
  2845  0AB9                     	goto	l282
  2846  0AB9  2AC5               u1800:
  2847  0ABA                     	line	68
  2848                           	
  2849                           l1379:	
  2850  0ABA                     	comf	(___fltol@f1),f
  2851  0ABA  09B5               	comf	(___fltol@f1+1),f
  2852  0ABB  09B6               	comf	(___fltol@f1+2),f
  2853  0ABC  09B7               	comf	(___fltol@f1+3),f
  2854  0ABD  09B8               	incf	(___fltol@f1),f
  2855  0ABE  0AB5               	skipnz
  2856  0ABF  1903               	incf	(___fltol@f1+1),f
  2857  0AC0  0AB6               	skipnz
  2858  0AC1  1903               	incf	(___fltol@f1+2),f
  2859  0AC2  0AB7               	skipnz
  2860  0AC3  1903               	incf	(___fltol@f1+3),f
  2861  0AC4  0AB8               	
  2862                           l282:	
  2863  0AC5                     	line	69
  2864                           	line	70
  2865                           	
  2866                           l272:	
  2867  0AC5                     	return
  2868  0AC5  0008               	opt stack 0
  2869                           GLOBAL	__end_of___fltol
  2870                           	__end_of___fltol:
  2871  0AC6                     	signat	___fltol,4220
  2872                           	global	___flneg
  2873                           
  2874 ;; *************** function ___flneg *****************
  2875 ;; Defined at:
  2876 ;;		line 15 in file "C:\Program Files (x86)\Microchip\xc8\v1.45\sources\common\flneg.c"
  2877 ;; Parameters:    Size  Location     Type
  2878 ;;  f1              4   57[BANK0 ] long 
  2879 ;; Auto vars:     Size  Location     Type
  2880 ;;		None
  2881 ;; Return value:  Size  Location     Type
  2882 ;;                  4   57[BANK0 ] long 
  2883 ;; Registers used:
  2884 ;;		wreg
  2885 ;; Tracked objects:
  2886 ;;		On entry : 0/0
  2887 ;;		On exit  : 0/0
  2888 ;;		Unchanged: 0/0
  2889 ;; Data sizes:     COMMON   BANK0   BANK1   BANK3   BANK2
  2890 ;;      Params:         0       4       0       0       0
  2891 ;;      Locals:         0       0       0       0       0
  2892 ;;      Temps:          0       0       0       0       0
  2893 ;;      Totals:         0       4       0       0       0
  2894 ;;Total ram usage:        4 bytes
  2895 ;; Hardware stack levels used:    1
  2896 ;; This function calls:
  2897 ;;		Nothing
  2898 ;; This function is called by:
  2899 ;;		_round
  2900 ;; This function uses a non-reentrant model
  2901 ;;
  2902                           psect	text6,local,class=CODE,delta=2,merge=1,group=2
  2903                           	file	"C:\Program Files (x86)\Microchip\xc8\v1.45\sources\common\flneg.c"
  2904                           	line	15
  2905                           global __ptext6
  2906                           __ptext6:	;psect for function ___flneg
  2907  080D                     psect	text6
  2908                           	file	"C:\Program Files (x86)\Microchip\xc8\v1.45\sources\common\flneg.c"
  2909                           	line	15
  2910                           	global	__size_of___flneg
  2911                           	__size_of___flneg	equ	__end_of___flneg-___flneg
  2912  000F                     	
  2913                           ___flneg:	
  2914  080D                     ;incstack = 0
  2915                           	opt	stack 6
  2916                           ; Regs used in ___flneg: [wreg]
  2917                           	line	17
  2918                           	
  2919                           l1441:	
  2920  080D                     	bcf	status, 5	;RP0=0, select bank0
  2921  080D  1283               	bcf	status, 6	;RP1=0, select bank0
  2922  080E  1303               	movf	(___flneg@f1+3),w
  2923  080F  085C               	iorwf	(___flneg@f1+2),w
  2924  0810  045B               	iorwf	(___flneg@f1+1),w
  2925  0811  045A               	iorwf	(___flneg@f1),w
  2926  0812  0459               	skipnz
  2927  0813  1903               	goto	u1961
  2928  0814  2816               	goto	u1960
  2929  0815  2817               u1961:
  2930  0816                     	goto	l1445
  2931  0816  281A               u1960:
  2932  0817                     	line	18
  2933                           	
  2934                           l1443:	
  2935  0817                     	movlw	080h
  2936  0817  3080               	xorwf	(___flneg@f1+3),f
  2937  0818  06DC               	goto	l1445
  2938  0819  281A               	
  2939                           l267:	
  2940  081A                     	line	19
  2941                           	
  2942                           l1445:	
  2943  081A                     	goto	l268
  2944  081A  281B               	
  2945                           l1447:	
  2946  081B                     	line	20
  2947                           	
  2948                           l268:	
  2949  081B                     	return
  2950  081B  0008               	opt stack 0
  2951                           GLOBAL	__end_of___flneg
  2952                           	__end_of___flneg:
  2953  081C                     	signat	___flneg,4220
  2954                           	global	___fladd
  2955                           
  2956 ;; *************** function ___fladd *****************
  2957 ;; Defined at:
  2958 ;;		line 10 in file "C:\Program Files (x86)\Microchip\xc8\v1.45\sources\common\sprcadd.c"
  2959 ;; Parameters:    Size  Location     Type
  2960 ;;  b               4   61[BANK0 ] long 
  2961 ;;  a               4   65[BANK0 ] long 
  2962 ;; Auto vars:     Size  Location     Type
  2963 ;;  grs             1   72[BANK0 ] unsigned char 
  2964 ;;  bexp            1   71[BANK0 ] unsigned char 
  2965 ;;  aexp            1   70[BANK0 ] unsigned char 
  2966 ;;  signs           1   69[BANK0 ] unsigned char 
  2967 ;; Return value:  Size  Location     Type
  2968 ;;                  4   61[BANK0 ] unsigned char 
  2969 ;; Registers used:
  2970 ;;		wreg, status,2, status,0, btemp+1
  2971 ;; Tracked objects:
  2972 ;;		On entry : 0/0
  2973 ;;		On exit  : 0/0
  2974 ;;		Unchanged: 0/0
  2975 ;; Data sizes:     COMMON   BANK0   BANK1   BANK3   BANK2
  2976 ;;      Params:         0       8       0       0       0
  2977 ;;      Locals:         0       4       0       0       0
  2978 ;;      Temps:          0       0      12       0       0
  2979 ;;      Totals:         0      12      12       0       0
  2980 ;;Total ram usage:       24 bytes
  2981 ;; Hardware stack levels used:    1
  2982 ;; This function calls:
  2983 ;;		Nothing
  2984 ;; This function is called by:
  2985 ;;		_round
  2986 ;; This function uses a non-reentrant model
  2987 ;;
  2988                           psect	text7,local,class=CODE,delta=2,merge=1,group=2
  2989                           	file	"C:\Program Files (x86)\Microchip\xc8\v1.45\sources\common\sprcadd.c"
  2990                           	line	10
  2991                           global __ptext7
  2992                           __ptext7:	;psect for function ___fladd
  2993  0463                     psect	text7
  2994                           	file	"C:\Program Files (x86)\Microchip\xc8\v1.45\sources\common\sprcadd.c"
  2995                           	line	10
  2996                           	global	__size_of___fladd
  2997                           	__size_of___fladd	equ	__end_of___fladd-___fladd
  2998  0395                     	
  2999                           ___fladd:	
  3000  0463                     ;incstack = 0
  3001                           	opt	stack 6
  3002                           ; Regs used in ___fladd: [wreg+status,2+status,0+btemp+1]
  3003                           	line	21
  3004                           	
  3005                           l1467:	
  3006  0463                     	bcf	status, 5	;RP0=0, select bank0
  3007  0463  1283               	bcf	status, 6	;RP1=0, select bank0
  3008  0464  1303               	movf	0+(___fladd@b)+03h,w
  3009  0465  0860               	andlw	080h
  3010  0466  3980               	bsf	status, 5	;RP0=1, select bank1
  3011  0467  1683               	bcf	status, 6	;RP1=0, select bank1
  3012  0468  1303               	movwf	(??___fladd+0)^080h+0
  3013  0469  00A0               	movf	(??___fladd+0)^080h+0,w
  3014  046A  0820               	bcf	status, 5	;RP0=0, select bank0
  3015  046B  1283               	bcf	status, 6	;RP1=0, select bank0
  3016  046C  1303               	movwf	(___fladd@signs)
  3017  046D  00E5               	line	22
  3018                           	
  3019                           l1469:	
  3020  046E                     	movf	0+(___fladd@b)+03h,w
  3021  046E  0860               	bsf	status, 5	;RP0=1, select bank1
  3022  046F  1683               	bcf	status, 6	;RP1=0, select bank1
  3023  0470  1303               	movwf	(??___fladd+0)^080h+0
  3024  0471  00A0               	addwf	(??___fladd+0)^080h+0,w
  3025  0472  0720               	movwf	(??___fladd+1)^080h+0
  3026  0473  00A1               	movf	(??___fladd+1)^080h+0,w
  3027  0474  0821               	bcf	status, 5	;RP0=0, select bank0
  3028  0475  1283               	bcf	status, 6	;RP1=0, select bank0
  3029  0476  1303               	movwf	(___fladd@bexp)
  3030  0477  00E7               	line	23
  3031                           	
  3032                           l1471:	
  3033  0478                     	btfss	0+(___fladd@b)+02h,(7)&7
  3034  0478  1FDF               	goto	u1991
  3035  0479  2C7B               	goto	u1990
  3036  047A  2C7C               u1991:
  3037  047B                     	goto	l1475
  3038  047B  2C7E               u1990:
  3039  047C                     	line	24
  3040                           	
  3041                           l1473:	
  3042  047C                     	bsf	(___fladd@bexp)+(0/8),(0)&7
  3043  047C  1467               	goto	l1475
  3044  047D  2C7E               	line	25
  3045                           	
  3046                           l366:	
  3047  047E                     	line	28
  3048                           	
  3049                           l1475:	
  3050  047E                     	movf	((___fladd@bexp)),w
  3051  047E  0867               	btfsc	status,2
  3052  047F  1903               	goto	u2001
  3053  0480  2C82               	goto	u2000
  3054  0481  2C83               u2001:
  3055  0482                     	goto	l1485
  3056  0482  2C94               u2000:
  3057  0483                     	line	30
  3058                           	
  3059                           l1477:	
  3060  0483                     		incf	((___fladd@bexp)),w
  3061  0483  0A67               	btfss	status,2
  3062  0484  1D03               	goto	u2011
  3063  0485  2C87               	goto	u2010
  3064  0486  2C88               u2011:
  3065  0487                     	goto	l1481
  3066  0487  2C91               u2010:
  3067  0488                     	line	32
  3068                           	
  3069                           l1479:	
  3070  0488                     	movlw	0x0
  3071  0488  3000               	movwf	(___fladd@b+3)
  3072  0489  00E0               	movlw	0x0
  3073  048A  3000               	movwf	(___fladd@b+2)
  3074  048B  00DF               	movlw	0x0
  3075  048C  3000               	movwf	(___fladd@b+1)
  3076  048D  00DE               	movlw	0x0
  3077  048E  3000               	movwf	(___fladd@b)
  3078  048F  00DD               
  3079                           	goto	l1481
  3080  0490  2C91               	line	33
  3081                           	
  3082                           l368:	
  3083  0491                     	line	35
  3084                           	
  3085                           l1481:	
  3086  0491                     	bsf	(___fladd@b)+(23/8),(23)&7
  3087  0491  17DF               	line	37
  3088                           	
  3089                           l1483:	
  3090  0492                     	clrf	0+(___fladd@b)+03h
  3091  0492  01E0               	line	38
  3092                           	goto	l1487
  3093  0493  2C9D               	line	39
  3094                           	
  3095                           l367:	
  3096  0494                     	line	41
  3097                           	
  3098                           l1485:	
  3099  0494                     	movlw	0x0
  3100  0494  3000               	movwf	(___fladd@b+3)
  3101  0495  00E0               	movlw	0x0
  3102  0496  3000               	movwf	(___fladd@b+2)
  3103  0497  00DF               	movlw	0x0
  3104  0498  3000               	movwf	(___fladd@b+1)
  3105  0499  00DE               	movlw	0x0
  3106  049A  3000               	movwf	(___fladd@b)
  3107  049B  00DD               
  3108                           	goto	l1487
  3109  049C  2C9D               	line	42
  3110                           	
  3111                           l369:	
  3112  049D                     	line	44
  3113                           	
  3114                           l1487:	
  3115  049D                     	movf	0+(___fladd@a)+03h,w
  3116  049D  0864               	andlw	080h
  3117  049E  3980               	bsf	status, 5	;RP0=1, select bank1
  3118  049F  1683               	bcf	status, 6	;RP1=0, select bank1
  3119  04A0  1303               	movwf	(??___fladd+0)^080h+0
  3120  04A1  00A0               	movf	(??___fladd+0)^080h+0,w
  3121  04A2  0820               	bcf	status, 5	;RP0=0, select bank0
  3122  04A3  1283               	bcf	status, 6	;RP1=0, select bank0
  3123  04A4  1303               	movwf	(___fladd@aexp)
  3124  04A5  00E6               	line	46
  3125                           	
  3126                           l1489:	
  3127  04A6                     	movf	(___fladd@aexp),w
  3128  04A6  0866               	xorwf	(___fladd@signs),w
  3129  04A7  0665               	skipnz
  3130  04A8  1903               	goto	u2021
  3131  04A9  2CAB               	goto	u2020
  3132  04AA  2CAC               u2021:
  3133  04AB                     	goto	l1493
  3134  04AB  2CAE               u2020:
  3135  04AC                     	line	47
  3136                           	
  3137                           l1491:	
  3138  04AC                     	bsf	(___fladd@signs)+(6/8),(6)&7
  3139  04AC  1765               	goto	l1493
  3140  04AD  2CAE               	line	48
  3141                           	
  3142                           l370:	
  3143  04AE                     	line	49
  3144                           	
  3145                           l1493:	
  3146  04AE                     	movf	0+(___fladd@a)+03h,w
  3147  04AE  0864               	bsf	status, 5	;RP0=1, select bank1
  3148  04AF  1683               	bcf	status, 6	;RP1=0, select bank1
  3149  04B0  1303               	movwf	(??___fladd+0)^080h+0
  3150  04B1  00A0               	addwf	(??___fladd+0)^080h+0,w
  3151  04B2  0720               	movwf	(??___fladd+1)^080h+0
  3152  04B3  00A1               	movf	(??___fladd+1)^080h+0,w
  3153  04B4  0821               	bcf	status, 5	;RP0=0, select bank0
  3154  04B5  1283               	bcf	status, 6	;RP1=0, select bank0
  3155  04B6  1303               	movwf	(___fladd@aexp)
  3156  04B7  00E6               	line	50
  3157                           	
  3158                           l1495:	
  3159  04B8                     	btfss	0+(___fladd@a)+02h,(7)&7
  3160  04B8  1FE3               	goto	u2031
  3161  04B9  2CBB               	goto	u2030
  3162  04BA  2CBC               u2031:
  3163  04BB                     	goto	l1499
  3164  04BB  2CBE               u2030:
  3165  04BC                     	line	51
  3166                           	
  3167                           l1497:	
  3168  04BC                     	bsf	(___fladd@aexp)+(0/8),(0)&7
  3169  04BC  1466               	goto	l1499
  3170  04BD  2CBE               	line	52
  3171                           	
  3172                           l371:	
  3173  04BE                     	line	55
  3174                           	
  3175                           l1499:	
  3176  04BE                     	movf	((___fladd@aexp)),w
  3177  04BE  0866               	btfsc	status,2
  3178  04BF  1903               	goto	u2041
  3179  04C0  2CC2               	goto	u2040
  3180  04C1  2CC3               u2041:
  3181  04C2                     	goto	l1509
  3182  04C2  2CD4               u2040:
  3183  04C3                     	line	57
  3184                           	
  3185                           l1501:	
  3186  04C3                     		incf	((___fladd@aexp)),w
  3187  04C3  0A66               	btfss	status,2
  3188  04C4  1D03               	goto	u2051
  3189  04C5  2CC7               	goto	u2050
  3190  04C6  2CC8               u2051:
  3191  04C7                     	goto	l1505
  3192  04C7  2CD1               u2050:
  3193  04C8                     	line	59
  3194                           	
  3195                           l1503:	
  3196  04C8                     	movlw	0x0
  3197  04C8  3000               	movwf	(___fladd@a+3)
  3198  04C9  00E4               	movlw	0x0
  3199  04CA  3000               	movwf	(___fladd@a+2)
  3200  04CB  00E3               	movlw	0x0
  3201  04CC  3000               	movwf	(___fladd@a+1)
  3202  04CD  00E2               	movlw	0x0
  3203  04CE  3000               	movwf	(___fladd@a)
  3204  04CF  00E1               
  3205                           	goto	l1505
  3206  04D0  2CD1               	line	60
  3207                           	
  3208                           l373:	
  3209  04D1                     	line	62
  3210                           	
  3211                           l1505:	
  3212  04D1                     	bsf	(___fladd@a)+(23/8),(23)&7
  3213  04D1  17E3               	line	64
  3214                           	
  3215                           l1507:	
  3216  04D2                     	clrf	0+(___fladd@a)+03h
  3217  04D2  01E4               	line	65
  3218                           	goto	l374
  3219  04D3  2CDC               	line	66
  3220                           	
  3221                           l372:	
  3222  04D4                     	line	68
  3223                           	
  3224                           l1509:	
  3225  04D4                     	movlw	0x0
  3226  04D4  3000               	movwf	(___fladd@a+3)
  3227  04D5  00E4               	movlw	0x0
  3228  04D6  3000               	movwf	(___fladd@a+2)
  3229  04D7  00E3               	movlw	0x0
  3230  04D8  3000               	movwf	(___fladd@a+1)
  3231  04D9  00E2               	movlw	0x0
  3232  04DA  3000               	movwf	(___fladd@a)
  3233  04DB  00E1               
  3234                           	line	69
  3235                           	
  3236                           l374:	
  3237  04DC                     	line	75
  3238                           	movf	(___fladd@bexp),w
  3239  04DC  0867               	subwf	(___fladd@aexp),w
  3240  04DD  0266               	skipnc
  3241  04DE  1803               	goto	u2061
  3242  04DF  2CE1               	goto	u2060
  3243  04E0  2CE2               u2061:
  3244  04E1                     	goto	l1545
  3245  04E1  2D68               u2060:
  3246  04E2                     	line	77
  3247                           	
  3248                           l1511:	
  3249  04E2                     	btfss	(___fladd@signs),(6)&7
  3250  04E2  1F65               	goto	u2071
  3251  04E3  2CE5               	goto	u2070
  3252  04E4  2CE6               u2071:
  3253  04E5                     	goto	l1515
  3254  04E5  2CEF               u2070:
  3255  04E6                     	line	78
  3256                           	
  3257                           l1513:	
  3258  04E6                     	movlw	low(080h)
  3259  04E6  3080               	bsf	status, 5	;RP0=1, select bank1
  3260  04E7  1683               	bcf	status, 6	;RP1=0, select bank1
  3261  04E8  1303               	movwf	(??___fladd+0)^080h+0
  3262  04E9  00A0               	movf	(??___fladd+0)^080h+0,w
  3263  04EA  0820               	bcf	status, 5	;RP0=0, select bank0
  3264  04EB  1283               	bcf	status, 6	;RP1=0, select bank0
  3265  04EC  1303               	xorwf	(___fladd@signs),f
  3266  04ED  06E5               	goto	l1515
  3267  04EE  2CEF               	line	79
  3268                           	
  3269                           l376:	
  3270  04EF                     	line	81
  3271                           	
  3272                           l1515:	
  3273  04EF                     	movf	(___fladd@bexp),w
  3274  04EF  0867               	bsf	status, 5	;RP0=1, select bank1
  3275  04F0  1683               	bcf	status, 6	;RP1=0, select bank1
  3276  04F1  1303               	movwf	(??___fladd+0)^080h+0
  3277  04F2  00A0               	movf	(??___fladd+0)^080h+0,w
  3278  04F3  0820               	bcf	status, 5	;RP0=0, select bank0
  3279  04F4  1283               	bcf	status, 6	;RP1=0, select bank0
  3280  04F5  1303               	movwf	(___fladd@grs)
  3281  04F6  00E8               	line	82
  3282                           	
  3283                           l1517:	
  3284  04F7                     	movf	(___fladd@aexp),w
  3285  04F7  0866               	bsf	status, 5	;RP0=1, select bank1
  3286  04F8  1683               	bcf	status, 6	;RP1=0, select bank1
  3287  04F9  1303               	movwf	(??___fladd+0)^080h+0
  3288  04FA  00A0               	movf	(??___fladd+0)^080h+0,w
  3289  04FB  0820               	bcf	status, 5	;RP0=0, select bank0
  3290  04FC  1283               	bcf	status, 6	;RP1=0, select bank0
  3291  04FD  1303               	movwf	(___fladd@bexp)
  3292  04FE  00E7               	line	83
  3293                           	
  3294                           l1519:	
  3295  04FF                     	movf	(___fladd@grs),w
  3296  04FF  0868               	bsf	status, 5	;RP0=1, select bank1
  3297  0500  1683               	bcf	status, 6	;RP1=0, select bank1
  3298  0501  1303               	movwf	(??___fladd+0)^080h+0
  3299  0502  00A0               	movf	(??___fladd+0)^080h+0,w
  3300  0503  0820               	bcf	status, 5	;RP0=0, select bank0
  3301  0504  1283               	bcf	status, 6	;RP1=0, select bank0
  3302  0505  1303               	movwf	(___fladd@aexp)
  3303  0506  00E6               	line	84
  3304                           	
  3305                           l1521:	
  3306  0507                     	movf	(___fladd@b),w
  3307  0507  085D               	bsf	status, 5	;RP0=1, select bank1
  3308  0508  1683               	bcf	status, 6	;RP1=0, select bank1
  3309  0509  1303               	movwf	(??___fladd+0)^080h+0
  3310  050A  00A0               	movf	(??___fladd+0)^080h+0,w
  3311  050B  0820               	bcf	status, 5	;RP0=0, select bank0
  3312  050C  1283               	bcf	status, 6	;RP1=0, select bank0
  3313  050D  1303               	movwf	(___fladd@grs)
  3314  050E  00E8               	line	85
  3315                           	
  3316                           l1523:	
  3317  050F                     	movf	(___fladd@a),w
  3318  050F  0861               	bsf	status, 5	;RP0=1, select bank1
  3319  0510  1683               	bcf	status, 6	;RP1=0, select bank1
  3320  0511  1303               	movwf	(??___fladd+0)^080h+0
  3321  0512  00A0               	movf	(??___fladd+0)^080h+0,w
  3322  0513  0820               	bcf	status, 5	;RP0=0, select bank0
  3323  0514  1283               	bcf	status, 6	;RP1=0, select bank0
  3324  0515  1303               	movwf	(___fladd@b)
  3325  0516  00DD               	line	86
  3326                           	
  3327                           l1525:	
  3328  0517                     	movf	(___fladd@grs),w
  3329  0517  0868               	bsf	status, 5	;RP0=1, select bank1
  3330  0518  1683               	bcf	status, 6	;RP1=0, select bank1
  3331  0519  1303               	movwf	(??___fladd+0)^080h+0
  3332  051A  00A0               	movf	(??___fladd+0)^080h+0,w
  3333  051B  0820               	bcf	status, 5	;RP0=0, select bank0
  3334  051C  1283               	bcf	status, 6	;RP1=0, select bank0
  3335  051D  1303               	movwf	(___fladd@a)
  3336  051E  00E1               	line	87
  3337                           	
  3338                           l1527:	
  3339  051F                     	movf	0+(___fladd@b)+01h,w
  3340  051F  085E               	bsf	status, 5	;RP0=1, select bank1
  3341  0520  1683               	bcf	status, 6	;RP1=0, select bank1
  3342  0521  1303               	movwf	(??___fladd+0)^080h+0
  3343  0522  00A0               	movf	(??___fladd+0)^080h+0,w
  3344  0523  0820               	bcf	status, 5	;RP0=0, select bank0
  3345  0524  1283               	bcf	status, 6	;RP1=0, select bank0
  3346  0525  1303               	movwf	(___fladd@grs)
  3347  0526  00E8               	line	88
  3348                           	
  3349                           l1529:	
  3350  0527                     	movf	0+(___fladd@a)+01h,w
  3351  0527  0862               	bsf	status, 5	;RP0=1, select bank1
  3352  0528  1683               	bcf	status, 6	;RP1=0, select bank1
  3353  0529  1303               	movwf	(??___fladd+0)^080h+0
  3354  052A  00A0               	movf	(??___fladd+0)^080h+0,w
  3355  052B  0820               	bcf	status, 5	;RP0=0, select bank0
  3356  052C  1283               	bcf	status, 6	;RP1=0, select bank0
  3357  052D  1303               	movwf	0+(___fladd@b)+01h
  3358  052E  00DE               	line	89
  3359                           	
  3360                           l1531:	
  3361  052F                     	movf	(___fladd@grs),w
  3362  052F  0868               	bsf	status, 5	;RP0=1, select bank1
  3363  0530  1683               	bcf	status, 6	;RP1=0, select bank1
  3364  0531  1303               	movwf	(??___fladd+0)^080h+0
  3365  0532  00A0               	movf	(??___fladd+0)^080h+0,w
  3366  0533  0820               	bcf	status, 5	;RP0=0, select bank0
  3367  0534  1283               	bcf	status, 6	;RP1=0, select bank0
  3368  0535  1303               	movwf	0+(___fladd@a)+01h
  3369  0536  00E2               	line	90
  3370                           	
  3371                           l1533:	
  3372  0537                     	movf	0+(___fladd@b)+02h,w
  3373  0537  085F               	bsf	status, 5	;RP0=1, select bank1
  3374  0538  1683               	bcf	status, 6	;RP1=0, select bank1
  3375  0539  1303               	movwf	(??___fladd+0)^080h+0
  3376  053A  00A0               	movf	(??___fladd+0)^080h+0,w
  3377  053B  0820               	bcf	status, 5	;RP0=0, select bank0
  3378  053C  1283               	bcf	status, 6	;RP1=0, select bank0
  3379  053D  1303               	movwf	(___fladd@grs)
  3380  053E  00E8               	line	91
  3381                           	
  3382                           l1535:	
  3383  053F                     	movf	0+(___fladd@a)+02h,w
  3384  053F  0863               	bsf	status, 5	;RP0=1, select bank1
  3385  0540  1683               	bcf	status, 6	;RP1=0, select bank1
  3386  0541  1303               	movwf	(??___fladd+0)^080h+0
  3387  0542  00A0               	movf	(??___fladd+0)^080h+0,w
  3388  0543  0820               	bcf	status, 5	;RP0=0, select bank0
  3389  0544  1283               	bcf	status, 6	;RP1=0, select bank0
  3390  0545  1303               	movwf	0+(___fladd@b)+02h
  3391  0546  00DF               	line	92
  3392                           	
  3393                           l1537:	
  3394  0547                     	movf	(___fladd@grs),w
  3395  0547  0868               	bsf	status, 5	;RP0=1, select bank1
  3396  0548  1683               	bcf	status, 6	;RP1=0, select bank1
  3397  0549  1303               	movwf	(??___fladd+0)^080h+0
  3398  054A  00A0               	movf	(??___fladd+0)^080h+0,w
  3399  054B  0820               	bcf	status, 5	;RP0=0, select bank0
  3400  054C  1283               	bcf	status, 6	;RP1=0, select bank0
  3401  054D  1303               	movwf	0+(___fladd@a)+02h
  3402  054E  00E3               	line	93
  3403                           	
  3404                           l1539:	
  3405  054F                     	movf	0+(___fladd@b)+03h,w
  3406  054F  0860               	bsf	status, 5	;RP0=1, select bank1
  3407  0550  1683               	bcf	status, 6	;RP1=0, select bank1
  3408  0551  1303               	movwf	(??___fladd+0)^080h+0
  3409  0552  00A0               	movf	(??___fladd+0)^080h+0,w
  3410  0553  0820               	bcf	status, 5	;RP0=0, select bank0
  3411  0554  1283               	bcf	status, 6	;RP1=0, select bank0
  3412  0555  1303               	movwf	(___fladd@grs)
  3413  0556  00E8               	line	94
  3414                           	
  3415                           l1541:	
  3416  0557                     	movf	0+(___fladd@a)+03h,w
  3417  0557  0864               	bsf	status, 5	;RP0=1, select bank1
  3418  0558  1683               	bcf	status, 6	;RP1=0, select bank1
  3419  0559  1303               	movwf	(??___fladd+0)^080h+0
  3420  055A  00A0               	movf	(??___fladd+0)^080h+0,w
  3421  055B  0820               	bcf	status, 5	;RP0=0, select bank0
  3422  055C  1283               	bcf	status, 6	;RP1=0, select bank0
  3423  055D  1303               	movwf	0+(___fladd@b)+03h
  3424  055E  00E0               	line	95
  3425                           	
  3426                           l1543:	
  3427  055F                     	movf	(___fladd@grs),w
  3428  055F  0868               	bsf	status, 5	;RP0=1, select bank1
  3429  0560  1683               	bcf	status, 6	;RP1=0, select bank1
  3430  0561  1303               	movwf	(??___fladd+0)^080h+0
  3431  0562  00A0               	movf	(??___fladd+0)^080h+0,w
  3432  0563  0820               	bcf	status, 5	;RP0=0, select bank0
  3433  0564  1283               	bcf	status, 6	;RP1=0, select bank0
  3434  0565  1303               	movwf	0+(___fladd@a)+03h
  3435  0566  00E4               	goto	l1545
  3436  0567  2D68               	line	96
  3437                           	
  3438                           l375:	
  3439  0568                     	line	98
  3440                           	
  3441                           l1545:	
  3442  0568                     	clrf	(___fladd@grs)
  3443  0568  01E8               	line	100
  3444                           	
  3445                           l1547:	
  3446  0569                     	movf	(___fladd@bexp),w
  3447  0569  0867               	bsf	status, 5	;RP0=1, select bank1
  3448  056A  1683               	bcf	status, 6	;RP1=0, select bank1
  3449  056B  1303               	movwf	(??___fladd+0)^080h+0
  3450  056C  00A0               	clrf	(??___fladd+0)^080h+0+1
  3451  056D  01A1               	comf	(??___fladd+0)^080h+0,f
  3452  056E  09A0               	comf	(??___fladd+0)^080h+1,f
  3453  056F  09A1               	incf	(??___fladd+0)^080h+0,f
  3454  0570  0AA0               	skipnz
  3455  0571  1903               	incf	(??___fladd+0)^080h+1,f
  3456  0572  0AA1               	bcf	status, 5	;RP0=0, select bank0
  3457  0573  1283               	bcf	status, 6	;RP1=0, select bank0
  3458  0574  1303               	movf	(___fladd@aexp),w
  3459  0575  0866               	bsf	status, 5	;RP0=1, select bank1
  3460  0576  1683               	bcf	status, 6	;RP1=0, select bank1
  3461  0577  1303               	addwf	0+(??___fladd+0)^080h+0,w
  3462  0578  0720               	movwf	(??___fladd+2)^080h+0
  3463  0579  00A2               	movf	1+(??___fladd+0)^080h+0,w
  3464  057A  0821               	skipnc
  3465  057B  1803               	incf	1+(??___fladd+0)^080h+0,w
  3466  057C  0A21               	movwf	((??___fladd+2)^080h+0)+1
  3467  057D  00A3               	movf	1+(??___fladd+2)^080h+0,w
  3468  057E  0823               	xorlw	80h
  3469  057F  3A80               	movwf	btemp+1
  3470  0580  00FF               	movlw	(0)^80h
  3471  0581  3080               	subwf	btemp+1,w
  3472  0582  027F               	skipz
  3473  0583  1D03               	goto	u2085
  3474  0584  2D87               	movlw	01Ah
  3475  0585  301A               	subwf	0+(??___fladd+2)^080h+0,w
  3476  0586  0222               u2085:
  3477  0587                     
  3478                           	skipc
  3479  0587  1C03               	goto	u2081
  3480  0588  2D8A               	goto	u2080
  3481  0589  2D8B               u2081:
  3482  058A                     	goto	l1563
  3483  058A  2DE0               u2080:
  3484  058B                     	line	101
  3485                           	
  3486                           l1549:	
  3487  058B                     	bcf	status, 5	;RP0=0, select bank0
  3488  058B  1283               	bcf	status, 6	;RP1=0, select bank0
  3489  058C  1303               	movf	(___fladd@b+3),w
  3490  058D  0860               	iorwf	(___fladd@b+2),w
  3491  058E  045F               	iorwf	(___fladd@b+1),w
  3492  058F  045E               	iorwf	(___fladd@b),w
  3493  0590  045D               	skipz
  3494  0591  1D03               	goto	u2091
  3495  0592  2D94               	goto	u2090
  3496  0593  2D96               u2091:
  3497  0594                     	movlw	1
  3498  0594  3001               	goto	u2100
  3499  0595  2D97               u2090:
  3500  0596                     	movlw	0
  3501  0596  3000               u2100:
  3502  0597                     	bsf	status, 5	;RP0=1, select bank1
  3503  0597  1683               	bcf	status, 6	;RP1=0, select bank1
  3504  0598  1303               	movwf	(??___fladd+0)^080h+0
  3505  0599  00A0               	movf	(??___fladd+0)^080h+0,w
  3506  059A  0820               	bcf	status, 5	;RP0=0, select bank0
  3507  059B  1283               	bcf	status, 6	;RP1=0, select bank0
  3508  059C  1303               	movwf	(___fladd@grs)
  3509  059D  00E8               	line	102
  3510                           	movlw	high highword(0)
  3511  059E  3000               	movwf	(___fladd@b+3)
  3512  059F  00E0               	movlw	low highword(0)
  3513  05A0  3000               	movwf	(___fladd@b+2)
  3514  05A1  00DF               	movlw	high(0)
  3515  05A2  3000               	movwf	(___fladd@b+1)
  3516  05A3  00DE               	movlw	low(0)
  3517  05A4  3000               	movwf	(___fladd@b)
  3518  05A5  00DD               
  3519                           	line	103
  3520                           	movf	(___fladd@aexp),w
  3521  05A6  0866               	bsf	status, 5	;RP0=1, select bank1
  3522  05A7  1683               	bcf	status, 6	;RP1=0, select bank1
  3523  05A8  1303               	movwf	(??___fladd+0)^080h+0
  3524  05A9  00A0               	movf	(??___fladd+0)^080h+0,w
  3525  05AA  0820               	bcf	status, 5	;RP0=0, select bank0
  3526  05AB  1283               	bcf	status, 6	;RP1=0, select bank0
  3527  05AC  1303               	movwf	(___fladd@bexp)
  3528  05AD  00E7               	line	104
  3529                           	goto	l378
  3530  05AE  2DE9               	line	105
  3531                           	
  3532                           l377:	
  3533  05AF                     	line	106
  3534                           	goto	l1563
  3535  05AF  2DE0               	
  3536                           l380:	
  3537  05B0                     	line	109
  3538                           	btfss	(___fladd@grs),(0)&7
  3539  05B0  1C68               	goto	u2111
  3540  05B1  2DB3               	goto	u2110
  3541  05B2  2DB4               u2111:
  3542  05B3                     	goto	l1553
  3543  05B3  2DC1               u2110:
  3544  05B4                     	line	110
  3545                           	
  3546                           l1551:	
  3547  05B4                     	movf	(___fladd@grs),w
  3548  05B4  0868               	bsf	status, 5	;RP0=1, select bank1
  3549  05B5  1683               	bcf	status, 6	;RP1=0, select bank1
  3550  05B6  1303               	movwf	(??___fladd+0)^080h+0
  3551  05B7  00A0               	clrc
  3552  05B8  1003               	rrf	(??___fladd+0)^080h+0,w
  3553  05B9  0C20               	iorlw	01h
  3554  05BA  3801               	movwf	(??___fladd+1)^080h+0
  3555  05BB  00A1               	movf	(??___fladd+1)^080h+0,w
  3556  05BC  0821               	bcf	status, 5	;RP0=0, select bank0
  3557  05BD  1283               	bcf	status, 6	;RP1=0, select bank0
  3558  05BE  1303               	movwf	(___fladd@grs)
  3559  05BF  00E8               	line	111
  3560                           	goto	l1555
  3561  05C0  2DC4               	line	112
  3562                           	
  3563                           l381:	
  3564  05C1                     	line	113
  3565                           	
  3566                           l1553:	
  3567  05C1                     	clrc
  3568  05C1  1003               	rrf	(___fladd@grs),f
  3569  05C2  0CE8               
  3570                           	goto	l1555
  3571  05C3  2DC4               	line	114
  3572                           	
  3573                           l382:	
  3574  05C4                     	line	115
  3575                           	
  3576                           l1555:	
  3577  05C4                     	btfss	(___fladd@b),(0)&7
  3578  05C4  1C5D               	goto	u2121
  3579  05C5  2DC7               	goto	u2120
  3580  05C6  2DC8               u2121:
  3581  05C7                     	goto	l1559
  3582  05C7  2DCA               u2120:
  3583  05C8                     	line	116
  3584                           	
  3585                           l1557:	
  3586  05C8                     	bsf	(___fladd@grs)+(7/8),(7)&7
  3587  05C8  17E8               	goto	l1559
  3588  05C9  2DCA               	line	117
  3589                           	
  3590                           l383:	
  3591  05CA                     	line	118
  3592                           	
  3593                           l1559:	
  3594  05CA                     	movlw	01h
  3595  05CA  3001               	bsf	status, 5	;RP0=1, select bank1
  3596  05CB  1683               	bcf	status, 6	;RP1=0, select bank1
  3597  05CC  1303               	movwf	(??___fladd+0)^080h+0
  3598  05CD  00A0               u2135:
  3599  05CE                     	bcf	status, 5	;RP0=0, select bank0
  3600  05CE  1283               	bcf	status, 6	;RP1=0, select bank0
  3601  05CF  1303               	rlf	(___fladd@b+3),w
  3602  05D0  0D60               	rrf	(___fladd@b+3),f
  3603  05D1  0CE0               	rrf	(___fladd@b+2),f
  3604  05D2  0CDF               	rrf	(___fladd@b+1),f
  3605  05D3  0CDE               	rrf	(___fladd@b),f
  3606  05D4  0CDD               	bsf	status, 5	;RP0=1, select bank1
  3607  05D5  1683               	bcf	status, 6	;RP1=0, select bank1
  3608  05D6  1303               	decfsz	(??___fladd+0)^080h+0&07fh,f
  3609  05D7  0BA0               	goto	u2135
  3610  05D8  2DCE               
  3611                           	line	119
  3612                           	
  3613                           l1561:	
  3614  05D9                     	movlw	low(01h)
  3615  05D9  3001               	movwf	(??___fladd+0)^080h+0
  3616  05DA  00A0               	movf	(??___fladd+0)^080h+0,w
  3617  05DB  0820               	bcf	status, 5	;RP0=0, select bank0
  3618  05DC  1283               	bcf	status, 6	;RP1=0, select bank0
  3619  05DD  1303               	addwf	(___fladd@bexp),f
  3620  05DE  07E7               	goto	l1563
  3621  05DF  2DE0               	line	120
  3622                           	
  3623                           l379:	
  3624  05E0                     	line	106
  3625                           	
  3626                           l1563:	
  3627  05E0                     	bcf	status, 5	;RP0=0, select bank0
  3628  05E0  1283               	bcf	status, 6	;RP1=0, select bank0
  3629  05E1  1303               	movf	(___fladd@aexp),w
  3630  05E2  0866               	subwf	(___fladd@bexp),w
  3631  05E3  0267               	skipc
  3632  05E4  1C03               	goto	u2141
  3633  05E5  2DE7               	goto	u2140
  3634  05E6  2DE8               u2141:
  3635  05E7                     	goto	l380
  3636  05E7  2DB0               u2140:
  3637  05E8                     	goto	l378
  3638  05E8  2DE9               	
  3639                           l384:	
  3640  05E9                     	line	121
  3641                           	
  3642                           l378:	
  3643  05E9                     	line	124
  3644                           	btfsc	(___fladd@signs),(6)&7
  3645  05E9  1B65               	goto	u2151
  3646  05EA  2DEC               	goto	u2150
  3647  05EB  2DED               u2151:
  3648  05EC                     	goto	l1589
  3649  05EC  2E47               u2150:
  3650  05ED                     	line	127
  3651                           	
  3652                           l1565:	
  3653  05ED                     	movf	((___fladd@bexp)),w
  3654  05ED  0867               	btfss	status,2
  3655  05EE  1D03               	goto	u2161
  3656  05EF  2DF1               	goto	u2160
  3657  05F0  2DF2               u2161:
  3658  05F1                     	goto	l1571
  3659  05F1  2DFC               u2160:
  3660  05F2                     	line	128
  3661                           	
  3662                           l1567:	
  3663  05F2                     	movlw	0x0
  3664  05F2  3000               	movwf	(?___fladd+3)
  3665  05F3  00E0               	movlw	0x0
  3666  05F4  3000               	movwf	(?___fladd+2)
  3667  05F5  00DF               	movlw	0x0
  3668  05F6  3000               	movwf	(?___fladd+1)
  3669  05F7  00DE               	movlw	0x0
  3670  05F8  3000               	movwf	(?___fladd)
  3671  05F9  00DD               
  3672                           	goto	l387
  3673  05FA  2FF7               	
  3674                           l1569:	
  3675  05FB                     	goto	l387
  3676  05FB  2FF7               	line	129
  3677                           	
  3678                           l386:	
  3679  05FC                     	line	132
  3680                           	
  3681                           l1571:	
  3682  05FC                     	movf	(___fladd@a),w
  3683  05FC  0861               	addwf	(___fladd@b),f
  3684  05FD  07DD               	movf	(___fladd@a+1),w
  3685  05FE  0862               	clrz
  3686  05FF  1103               	skipnc
  3687  0600  1803               	addlw	1
  3688  0601  3E01               	skipnz
  3689  0602  1903               	goto	u2171
  3690  0603  2E05               	addwf	(___fladd@b+1),f
  3691  0604  07DE               u2171:
  3692  0605                     	movf	(___fladd@a+2),w
  3693  0605  0863               	clrz
  3694  0606  1103               	skipnc
  3695  0607  1803               	addlw	1
  3696  0608  3E01               	skipnz
  3697  0609  1903               	goto	u2172
  3698  060A  2E0C               	addwf	(___fladd@b+2),f
  3699  060B  07DF               u2172:
  3700  060C                     	movf	(___fladd@a+3),w
  3701  060C  0864               	clrz
  3702  060D  1103               	skipnc
  3703  060E  1803               	addlw	1
  3704  060F  3E01               	skipnz
  3705  0610  1903               	goto	u2173
  3706  0611  2E13               	addwf	(___fladd@b+3),f
  3707  0612  07E0               u2173:
  3708  0613                     
  3709                           	line	134
  3710                           	
  3711                           l1573:	
  3712  0613                     	btfss	(___fladd@b+3),(24)&7
  3713  0613  1C60               	goto	u2181
  3714  0614  2E16               	goto	u2180
  3715  0615  2E17               u2181:
  3716  0616                     	goto	l1623
  3717  0616  2F4C               u2180:
  3718  0617                     	line	135
  3719                           	
  3720                           l1575:	
  3721  0617                     	btfss	(___fladd@grs),(0)&7
  3722  0617  1C68               	goto	u2191
  3723  0618  2E1A               	goto	u2190
  3724  0619  2E1B               u2191:
  3725  061A                     	goto	l1579
  3726  061A  2E27               u2190:
  3727  061B                     	line	136
  3728                           	
  3729                           l1577:	
  3730  061B                     	clrc
  3731  061B  1003               	rrf	(___fladd@grs),f
  3732  061C  0CE8               
  3733                           	movf	((___fladd@grs)),w
  3734  061D  0868               	iorlw	01h
  3735  061E  3801               	bsf	status, 5	;RP0=1, select bank1
  3736  061F  1683               	bcf	status, 6	;RP1=0, select bank1
  3737  0620  1303               	movwf	(??___fladd+0)^080h+0
  3738  0621  00A0               	movf	(??___fladd+0)^080h+0,w
  3739  0622  0820               	bcf	status, 5	;RP0=0, select bank0
  3740  0623  1283               	bcf	status, 6	;RP1=0, select bank0
  3741  0624  1303               	movwf	(___fladd@grs)
  3742  0625  00E8               	line	137
  3743                           	goto	l1581
  3744  0626  2E2A               	line	138
  3745                           	
  3746                           l389:	
  3747  0627                     	line	139
  3748                           	
  3749                           l1579:	
  3750  0627                     	clrc
  3751  0627  1003               	rrf	(___fladd@grs),f
  3752  0628  0CE8               
  3753                           	goto	l1581
  3754  0629  2E2A               	line	140
  3755                           	
  3756                           l390:	
  3757  062A                     	line	141
  3758                           	
  3759                           l1581:	
  3760  062A                     	btfss	(___fladd@b),(0)&7
  3761  062A  1C5D               	goto	u2201
  3762  062B  2E2D               	goto	u2200
  3763  062C  2E2E               u2201:
  3764  062D                     	goto	l1585
  3765  062D  2E30               u2200:
  3766  062E                     	line	142
  3767                           	
  3768                           l1583:	
  3769  062E                     	bsf	(___fladd@grs)+(7/8),(7)&7
  3770  062E  17E8               	goto	l1585
  3771  062F  2E30               	line	143
  3772                           	
  3773                           l391:	
  3774  0630                     	line	144
  3775                           	
  3776                           l1585:	
  3777  0630                     	movlw	01h
  3778  0630  3001               	bsf	status, 5	;RP0=1, select bank1
  3779  0631  1683               	bcf	status, 6	;RP1=0, select bank1
  3780  0632  1303               	movwf	(??___fladd+0)^080h+0
  3781  0633  00A0               u2215:
  3782  0634                     	bcf	status, 5	;RP0=0, select bank0
  3783  0634  1283               	bcf	status, 6	;RP1=0, select bank0
  3784  0635  1303               	rlf	(___fladd@b+3),w
  3785  0636  0D60               	rrf	(___fladd@b+3),f
  3786  0637  0CE0               	rrf	(___fladd@b+2),f
  3787  0638  0CDF               	rrf	(___fladd@b+1),f
  3788  0639  0CDE               	rrf	(___fladd@b),f
  3789  063A  0CDD               	bsf	status, 5	;RP0=1, select bank1
  3790  063B  1683               	bcf	status, 6	;RP1=0, select bank1
  3791  063C  1303               	decfsz	(??___fladd+0)^080h+0&07fh,f
  3792  063D  0BA0               	goto	u2215
  3793  063E  2E34               
  3794                           	line	145
  3795                           	
  3796                           l1587:	
  3797  063F                     	movlw	low(01h)
  3798  063F  3001               	movwf	(??___fladd+0)^080h+0
  3799  0640  00A0               	movf	(??___fladd+0)^080h+0,w
  3800  0641  0820               	bcf	status, 5	;RP0=0, select bank0
  3801  0642  1283               	bcf	status, 6	;RP1=0, select bank0
  3802  0643  1303               	addwf	(___fladd@bexp),f
  3803  0644  07E7               	goto	l1623
  3804  0645  2F4C               	line	146
  3805                           	
  3806                           l388:	
  3807  0646                     	line	148
  3808                           	goto	l1623
  3809  0646  2F4C               	line	149
  3810                           	
  3811                           l385:	
  3812  0647                     	line	153
  3813                           	
  3814                           l1589:	
  3815  0647                     	movf	(___fladd@b+3),w
  3816  0647  0860               	xorlw	80h
  3817  0648  3A80               	movwf	btemp+1
  3818  0649  00FF               	movf	(___fladd@a+3),w
  3819  064A  0864               	xorlw	80h
  3820  064B  3A80               	subwf	btemp+1,w
  3821  064C  027F               	
  3822                           	skipz
  3823  064D  1D03               	goto	u2223
  3824  064E  2E59               	movf	(___fladd@a+2),w
  3825  064F  0863               	subwf	(___fladd@b+2),w
  3826  0650  025F               	skipz
  3827  0651  1D03               	goto	u2223
  3828  0652  2E59               	movf	(___fladd@a+1),w
  3829  0653  0862               	subwf	(___fladd@b+1),w
  3830  0654  025E               	skipz
  3831  0655  1D03               	goto	u2223
  3832  0656  2E59               	movf	(___fladd@a),w
  3833  0657  0861               	subwf	(___fladd@b),w
  3834  0658  025D               u2223:
  3835  0659                     	skipnc
  3836  0659  1803               	goto	u2221
  3837  065A  2E5C               	goto	u2220
  3838  065B  2E5D               u2221:
  3839  065C                     	goto	l1599
  3840  065C  2EF7               u2220:
  3841  065D                     	line	154
  3842                           	
  3843                           l1591:	
  3844  065D                     	movlw	0FFh
  3845  065D  30FF               	bsf	status, 5	;RP0=1, select bank1
  3846  065E  1683               	bcf	status, 6	;RP1=0, select bank1
  3847  065F  1303               	movwf	((??___fladd+0)^080h+0)
  3848  0660  00A0               	movlw	0FFh
  3849  0661  30FF               	movwf	((??___fladd+0)^080h+0+1)
  3850  0662  00A1               	movlw	0FFh
  3851  0663  30FF               	movwf	((??___fladd+0)^080h+0+2)
  3852  0664  00A2               	movlw	0FFh
  3853  0665  30FF               	movwf	((??___fladd+0)^080h+0+3)
  3854  0666  00A3               	bcf	status, 5	;RP0=0, select bank0
  3855  0667  1283               	bcf	status, 6	;RP1=0, select bank0
  3856  0668  1303               	movf	(___fladd@a),w
  3857  0669  0861               	bsf	status, 5	;RP0=1, select bank1
  3858  066A  1683               	bcf	status, 6	;RP1=0, select bank1
  3859  066B  1303               	movwf	(??___fladd+4)^080h+0
  3860  066C  00A4               	bcf	status, 5	;RP0=0, select bank0
  3861  066D  1283               	bcf	status, 6	;RP1=0, select bank0
  3862  066E  1303               	movf	(___fladd@a+1),w
  3863  066F  0862               	bsf	status, 5	;RP0=1, select bank1
  3864  0670  1683               	bcf	status, 6	;RP1=0, select bank1
  3865  0671  1303               	movwf	((??___fladd+4)^080h+0+1)
  3866  0672  00A5               	bcf	status, 5	;RP0=0, select bank0
  3867  0673  1283               	bcf	status, 6	;RP1=0, select bank0
  3868  0674  1303               	movf	(___fladd@a+2),w
  3869  0675  0863               	bsf	status, 5	;RP0=1, select bank1
  3870  0676  1683               	bcf	status, 6	;RP1=0, select bank1
  3871  0677  1303               	movwf	((??___fladd+4)^080h+0+2)
  3872  0678  00A6               	bcf	status, 5	;RP0=0, select bank0
  3873  0679  1283               	bcf	status, 6	;RP1=0, select bank0
  3874  067A  1303               	movf	(___fladd@a+3),w
  3875  067B  0864               	bsf	status, 5	;RP0=1, select bank1
  3876  067C  1683               	bcf	status, 6	;RP1=0, select bank1
  3877  067D  1303               	movwf	((??___fladd+4)^080h+0+3)
  3878  067E  00A7               	bcf	status, 5	;RP0=0, select bank0
  3879  067F  1283               	bcf	status, 6	;RP1=0, select bank0
  3880  0680  1303               	comf	(___fladd@b),w
  3881  0681  095D               	bsf	status, 5	;RP0=1, select bank1
  3882  0682  1683               	bcf	status, 6	;RP1=0, select bank1
  3883  0683  1303               	movwf	(??___fladd+8)^080h+0
  3884  0684  00A8               	bcf	status, 5	;RP0=0, select bank0
  3885  0685  1283               	bcf	status, 6	;RP1=0, select bank0
  3886  0686  1303               	comf	(___fladd@b+1),w
  3887  0687  095E               	bsf	status, 5	;RP0=1, select bank1
  3888  0688  1683               	bcf	status, 6	;RP1=0, select bank1
  3889  0689  1303               	movwf	((??___fladd+8)^080h+0+1)
  3890  068A  00A9               	bcf	status, 5	;RP0=0, select bank0
  3891  068B  1283               	bcf	status, 6	;RP1=0, select bank0
  3892  068C  1303               	comf	(___fladd@b+2),w
  3893  068D  095F               	bsf	status, 5	;RP0=1, select bank1
  3894  068E  1683               	bcf	status, 6	;RP1=0, select bank1
  3895  068F  1303               	movwf	((??___fladd+8)^080h+0+2)
  3896  0690  00AA               	bcf	status, 5	;RP0=0, select bank0
  3897  0691  1283               	bcf	status, 6	;RP1=0, select bank0
  3898  0692  1303               	comf	(___fladd@b+3),w
  3899  0693  0960               	bsf	status, 5	;RP0=1, select bank1
  3900  0694  1683               	bcf	status, 6	;RP1=0, select bank1
  3901  0695  1303               	movwf	((??___fladd+8)^080h+0+3)
  3902  0696  00AB               	incf	(??___fladd+8)^080h+0,f
  3903  0697  0AA8               	skipnz
  3904  0698  1903               	incf	((??___fladd+8)^080h+0+1),f
  3905  0699  0AA9               	skipnz
  3906  069A  1903               	incf	((??___fladd+8)^080h+0+2),f
  3907  069B  0AAA               	skipnz
  3908  069C  1903               	incf	((??___fladd+8)^080h+0+3),f
  3909  069D  0AAB               	movf	0+(??___fladd+8)^080h+0,w
  3910  069E  0828               	addwf	(??___fladd+4)^080h+0,f
  3911  069F  07A4               	movf	1+(??___fladd+8)^080h+0,w
  3912  06A0  0829               	skipnc
  3913  06A1  1803               	incfsz	1+(??___fladd+8)^080h+0,w
  3914  06A2  0F29               	goto	u2230
  3915  06A3  2EA5               	goto	u2231
  3916  06A4  2EA6               u2230:
  3917  06A5                     	addwf	(??___fladd+4)^080h+1,f
  3918  06A5  07A5               u2231:
  3919  06A6                     	movf	2+(??___fladd+8)^080h+0,w
  3920  06A6  082A               	skipnc
  3921  06A7  1803               	incfsz	2+(??___fladd+8)^080h+0,w
  3922  06A8  0F2A               	goto	u2232
  3923  06A9  2EAB               	goto	u2233
  3924  06AA  2EAC               u2232:
  3925  06AB                     	addwf	(??___fladd+4)^080h+2,f
  3926  06AB  07A6               u2233:
  3927  06AC                     	movf	3+(??___fladd+8)^080h+0,w
  3928  06AC  082B               	skipnc
  3929  06AD  1803               	incf	3+(??___fladd+8)^080h+0,w
  3930  06AE  0A2B               	addwf	(??___fladd+4)^080h+3,f
  3931  06AF  07A7               	movf	0+(??___fladd+4)^080h+0,w
  3932  06B0  0824               	addwf	(??___fladd+0)^080h+0,f
  3933  06B1  07A0               	movf	1+(??___fladd+4)^080h+0,w
  3934  06B2  0825               	skipnc
  3935  06B3  1803               	incfsz	1+(??___fladd+4)^080h+0,w
  3936  06B4  0F25               	goto	u2240
  3937  06B5  2EB7               	goto	u2241
  3938  06B6  2EB8               u2240:
  3939  06B7                     	addwf	(??___fladd+0)^080h+1,f
  3940  06B7  07A1               u2241:
  3941  06B8                     	movf	2+(??___fladd+4)^080h+0,w
  3942  06B8  0826               	skipnc
  3943  06B9  1803               	incfsz	2+(??___fladd+4)^080h+0,w
  3944  06BA  0F26               	goto	u2242
  3945  06BB  2EBD               	goto	u2243
  3946  06BC  2EBE               u2242:
  3947  06BD                     	addwf	(??___fladd+0)^080h+2,f
  3948  06BD  07A2               u2243:
  3949  06BE                     	movf	3+(??___fladd+4)^080h+0,w
  3950  06BE  0827               	skipnc
  3951  06BF  1803               	incf	3+(??___fladd+4)^080h+0,w
  3952  06C0  0A27               	addwf	(??___fladd+0)^080h+3,f
  3953  06C1  07A3               	movf	3+(??___fladd+0)^080h+0,w
  3954  06C2  0823               	bcf	status, 5	;RP0=0, select bank0
  3955  06C3  1283               	bcf	status, 6	;RP1=0, select bank0
  3956  06C4  1303               	movwf	(___fladd@b+3)
  3957  06C5  00E0               	bsf	status, 5	;RP0=1, select bank1
  3958  06C6  1683               	bcf	status, 6	;RP1=0, select bank1
  3959  06C7  1303               	movf	2+(??___fladd+0)^080h+0,w
  3960  06C8  0822               	bcf	status, 5	;RP0=0, select bank0
  3961  06C9  1283               	bcf	status, 6	;RP1=0, select bank0
  3962  06CA  1303               	movwf	(___fladd@b+2)
  3963  06CB  00DF               	bsf	status, 5	;RP0=1, select bank1
  3964  06CC  1683               	bcf	status, 6	;RP1=0, select bank1
  3965  06CD  1303               	movf	1+(??___fladd+0)^080h+0,w
  3966  06CE  0821               	bcf	status, 5	;RP0=0, select bank0
  3967  06CF  1283               	bcf	status, 6	;RP1=0, select bank0
  3968  06D0  1303               	movwf	(___fladd@b+1)
  3969  06D1  00DE               	bsf	status, 5	;RP0=1, select bank1
  3970  06D2  1683               	bcf	status, 6	;RP1=0, select bank1
  3971  06D3  1303               	movf	0+(??___fladd+0)^080h+0,w
  3972  06D4  0820               	bcf	status, 5	;RP0=0, select bank0
  3973  06D5  1283               	bcf	status, 6	;RP1=0, select bank0
  3974  06D6  1303               	movwf	(___fladd@b)
  3975  06D7  00DD               
  3976                           	line	155
  3977                           	movlw	low(080h)
  3978  06D8  3080               	bsf	status, 5	;RP0=1, select bank1
  3979  06D9  1683               	bcf	status, 6	;RP1=0, select bank1
  3980  06DA  1303               	movwf	(??___fladd+0)^080h+0
  3981  06DB  00A0               	movf	(??___fladd+0)^080h+0,w
  3982  06DC  0820               	bcf	status, 5	;RP0=0, select bank0
  3983  06DD  1283               	bcf	status, 6	;RP1=0, select bank0
  3984  06DE  1303               	xorwf	(___fladd@signs),f
  3985  06DF  06E5               	line	156
  3986                           	
  3987                           l1593:	
  3988  06E0                     	comf	(___fladd@grs),f
  3989  06E0  09E8               	incf	(___fladd@grs),f
  3990  06E1  0AE8               	line	157
  3991                           	
  3992                           l1595:	
  3993  06E2                     	movf	((___fladd@grs)),w
  3994  06E2  0868               	btfss	status,2
  3995  06E3  1D03               	goto	u2251
  3996  06E4  2EE6               	goto	u2250
  3997  06E5  2EE7               u2251:
  3998  06E6                     	goto	l395
  3999  06E6  2F05               u2250:
  4000  06E7                     	line	158
  4001                           	
  4002                           l1597:	
  4003  06E7                     	movlw	01h
  4004  06E7  3001               	addwf	(___fladd@b),f
  4005  06E8  07DD               	movlw	0
  4006  06E9  3000               	skipnc
  4007  06EA  1803               movlw 1
  4008  06EB  3001               	addwf	(___fladd@b+1),f
  4009  06EC  07DE               	movlw	0
  4010  06ED  3000               	skipnc
  4011  06EE  1803               movlw 1
  4012  06EF  3001               	addwf	(___fladd@b+2),f
  4013  06F0  07DF               	movlw	0
  4014  06F1  3000               	skipnc
  4015  06F2  1803               movlw 1
  4016  06F3  3001               	addwf	(___fladd@b+3),f
  4017  06F4  07E0               	goto	l395
  4018  06F5  2F05               	line	159
  4019                           	
  4020                           l394:	
  4021  06F6                     	line	160
  4022                           	goto	l395
  4023  06F6  2F05               	line	161
  4024                           	
  4025                           l393:	
  4026  06F7                     	line	162
  4027                           	
  4028                           l1599:	
  4029  06F7                     	movf	(___fladd@a),w
  4030  06F7  0861               	subwf	(___fladd@b),f
  4031  06F8  02DD               	movf	(___fladd@a+1),w
  4032  06F9  0862               	skipc
  4033  06FA  1C03               	incfsz	(___fladd@a+1),w
  4034  06FB  0F62               	subwf	(___fladd@b+1),f
  4035  06FC  02DE               	movf	(___fladd@a+2),w
  4036  06FD  0863               	skipc
  4037  06FE  1C03               	incfsz	(___fladd@a+2),w
  4038  06FF  0F63               	subwf	(___fladd@b+2),f
  4039  0700  02DF               	movf	(___fladd@a+3),w
  4040  0701  0864               	skipc
  4041  0702  1C03               	incfsz	(___fladd@a+3),w
  4042  0703  0F64               	subwf	(___fladd@b+3),f
  4043  0704  02E0               	line	163
  4044                           	
  4045                           l395:	
  4046  0705                     	line	166
  4047                           	movf	(___fladd@b+3),w
  4048  0705  0860               	iorwf	(___fladd@b+2),w
  4049  0706  045F               	iorwf	(___fladd@b+1),w
  4050  0707  045E               	iorwf	(___fladd@b),w
  4051  0708  045D               	skipz
  4052  0709  1D03               	goto	u2261
  4053  070A  2F0C               	goto	u2260
  4054  070B  2F0D               u2261:
  4055  070C                     	goto	l1621
  4056  070C  2F46               u2260:
  4057  070D                     	
  4058                           l1601:	
  4059  070D                     	movf	((___fladd@grs)),w
  4060  070D  0868               	btfss	status,2
  4061  070E  1D03               	goto	u2271
  4062  070F  2F11               	goto	u2270
  4063  0710  2F12               u2271:
  4064  0711                     	goto	l1621
  4065  0711  2F46               u2270:
  4066  0712                     	line	167
  4067                           	
  4068                           l1603:	
  4069  0712                     	movlw	0x0
  4070  0712  3000               	movwf	(?___fladd+3)
  4071  0713  00E0               	movlw	0x0
  4072  0714  3000               	movwf	(?___fladd+2)
  4073  0715  00DF               	movlw	0x0
  4074  0716  3000               	movwf	(?___fladd+1)
  4075  0717  00DE               	movlw	0x0
  4076  0718  3000               	movwf	(?___fladd)
  4077  0719  00DD               
  4078                           	goto	l387
  4079  071A  2FF7               	
  4080                           l1605:	
  4081  071B                     	goto	l387
  4082  071B  2FF7               	line	168
  4083                           	
  4084                           l396:	
  4085  071C                     	line	171
  4086                           	goto	l1621
  4087  071C  2F46               	
  4088                           l398:	
  4089  071D                     	line	172
  4090                           	
  4091                           l1607:	
  4092  071D                     	movlw	01h
  4093  071D  3001               	bsf	status, 5	;RP0=1, select bank1
  4094  071E  1683               	bcf	status, 6	;RP1=0, select bank1
  4095  071F  1303               	movwf	(??___fladd+0)^080h+0
  4096  0720  00A0               u2285:
  4097  0721                     	clrc
  4098  0721  1003               	bcf	status, 5	;RP0=0, select bank0
  4099  0722  1283               	bcf	status, 6	;RP1=0, select bank0
  4100  0723  1303               	rlf	(___fladd@b),f
  4101  0724  0DDD               	rlf	(___fladd@b+1),f
  4102  0725  0DDE               	rlf	(___fladd@b+2),f
  4103  0726  0DDF               	rlf	(___fladd@b+3),f
  4104  0727  0DE0               	bsf	status, 5	;RP0=1, select bank1
  4105  0728  1683               	bcf	status, 6	;RP1=0, select bank1
  4106  0729  1303               	decfsz	(??___fladd+0)^080h+0
  4107  072A  0BA0               	goto	u2285
  4108  072B  2F21               	line	173
  4109                           	
  4110                           l1609:	
  4111  072C                     	bcf	status, 5	;RP0=0, select bank0
  4112  072C  1283               	bcf	status, 6	;RP1=0, select bank0
  4113  072D  1303               	btfss	(___fladd@grs),(7)&7
  4114  072E  1FE8               	goto	u2291
  4115  072F  2F31               	goto	u2290
  4116  0730  2F32               u2291:
  4117  0731                     	goto	l399
  4118  0731  2F33               u2290:
  4119  0732                     	line	174
  4120                           	
  4121                           l1611:	
  4122  0732                     	bsf	(___fladd@b)+(0/8),(0)&7
  4123  0732  145D               	line	175
  4124                           	
  4125                           l399:	
  4126  0733                     	line	176
  4127                           	btfss	(___fladd@grs),(0)&7
  4128  0733  1C68               	goto	u2301
  4129  0734  2F36               	goto	u2300
  4130  0735  2F37               u2301:
  4131  0736                     	goto	l1615
  4132  0736  2F3A               u2300:
  4133  0737                     	line	177
  4134                           	
  4135                           l1613:	
  4136  0737                     	setc
  4137  0737  1403               	rlf	(___fladd@grs),f
  4138  0738  0DE8               	line	178
  4139                           	goto	l1617
  4140  0739  2F3D               	line	179
  4141                           	
  4142                           l400:	
  4143  073A                     	line	180
  4144                           	
  4145                           l1615:	
  4146  073A                     	clrc
  4147  073A  1003               	rlf	(___fladd@grs),f
  4148  073B  0DE8               
  4149                           	goto	l1617
  4150  073C  2F3D               	line	181
  4151                           	
  4152                           l401:	
  4153  073D                     	line	182
  4154                           	
  4155                           l1617:	
  4156  073D                     	movf	((___fladd@bexp)),w
  4157  073D  0867               	btfsc	status,2
  4158  073E  1903               	goto	u2311
  4159  073F  2F41               	goto	u2310
  4160  0740  2F42               u2311:
  4161  0741                     	goto	l1621
  4162  0741  2F46               u2310:
  4163  0742                     	line	183
  4164                           	
  4165                           l1619:	
  4166  0742                     	movlw	01h
  4167  0742  3001               	subwf	(___fladd@bexp),f
  4168  0743  02E7               	goto	l1621
  4169  0744  2F46               	line	184
  4170                           	
  4171                           l402:	
  4172  0745                     	goto	l1621
  4173  0745  2F46               	line	185
  4174                           	
  4175                           l397:	
  4176  0746                     	line	171
  4177                           	
  4178                           l1621:	
  4179  0746                     	btfss	(___fladd@b+2),(23)&7
  4180  0746  1FDF               	goto	u2321
  4181  0747  2F49               	goto	u2320
  4182  0748  2F4A               u2321:
  4183  0749                     	goto	l1607
  4184  0749  2F1D               u2320:
  4185  074A                     	goto	l1623
  4186  074A  2F4C               	
  4187                           l403:	
  4188  074B                     	goto	l1623
  4189  074B  2F4C               	line	186
  4190                           	
  4191                           l392:	
  4192  074C                     	line	192
  4193                           	
  4194                           l1623:	
  4195  074C                     	clrf	(___fladd@aexp)
  4196  074C  01E6               	line	193
  4197                           	
  4198                           l1625:	
  4199  074D                     	btfss	(___fladd@grs),(7)&7
  4200  074D  1FE8               	goto	u2331
  4201  074E  2F50               	goto	u2330
  4202  074F  2F51               u2331:
  4203  0750                     	goto	l1633
  4204  0750  2F63               u2330:
  4205  0751                     	line	194
  4206                           	
  4207                           l1627:	
  4208  0751                     	movf	(___fladd@grs),w
  4209  0751  0868               	andlw	07Fh
  4210  0752  397F               	btfsc	status,2
  4211  0753  1903               	goto	u2341
  4212  0754  2F56               	goto	u2340
  4213  0755  2F57               u2341:
  4214  0756                     	goto	l405
  4215  0756  2F5A               u2340:
  4216  0757                     	line	195
  4217                           	
  4218                           l1629:	
  4219  0757                     	clrf	(___fladd@aexp)
  4220  0757  01E6               	incf	(___fladd@aexp),f
  4221  0758  0AE6               	line	196
  4222                           	goto	l1633
  4223  0759  2F63               	line	197
  4224                           	
  4225                           l405:	
  4226  075A                     	line	198
  4227                           	btfss	(___fladd@b),(0)&7
  4228  075A  1C5D               	goto	u2351
  4229  075B  2F5D               	goto	u2350
  4230  075C  2F5E               u2351:
  4231  075D                     	goto	l1633
  4232  075D  2F63               u2350:
  4233  075E                     	line	199
  4234                           	
  4235                           l1631:	
  4236  075E                     	clrf	(___fladd@aexp)
  4237  075E  01E6               	incf	(___fladd@aexp),f
  4238  075F  0AE6               	goto	l1633
  4239  0760  2F63               	line	200
  4240                           	
  4241                           l407:	
  4242  0761                     	goto	l1633
  4243  0761  2F63               	line	201
  4244                           	
  4245                           l406:	
  4246  0762                     	goto	l1633
  4247  0762  2F63               	line	202
  4248                           	
  4249                           l404:	
  4250  0763                     	line	203
  4251                           	
  4252                           l1633:	
  4253  0763                     	movf	((___fladd@aexp)),w
  4254  0763  0866               	btfsc	status,2
  4255  0764  1903               	goto	u2361
  4256  0765  2F67               	goto	u2360
  4257  0766  2F68               u2361:
  4258  0767                     	goto	l408
  4259  0767  2FBE               u2360:
  4260  0768                     	line	204
  4261                           	
  4262                           l1635:	
  4263  0768                     	movlw	01h
  4264  0768  3001               	addwf	(___fladd@b),f
  4265  0769  07DD               	movlw	0
  4266  076A  3000               	skipnc
  4267  076B  1803               movlw 1
  4268  076C  3001               	addwf	(___fladd@b+1),f
  4269  076D  07DE               	movlw	0
  4270  076E  3000               	skipnc
  4271  076F  1803               movlw 1
  4272  0770  3001               	addwf	(___fladd@b+2),f
  4273  0771  07DF               	movlw	0
  4274  0772  3000               	skipnc
  4275  0773  1803               movlw 1
  4276  0774  3001               	addwf	(___fladd@b+3),f
  4277  0775  07E0               	line	205
  4278                           	
  4279                           l1637:	
  4280  0776                     	btfss	(___fladd@b+3),(24)&7
  4281  0776  1C60               	goto	u2371
  4282  0777  2F79               	goto	u2370
  4283  0778  2F7A               u2371:
  4284  0779                     	goto	l408
  4285  0779  2FBE               u2370:
  4286  077A                     	line	206
  4287                           	
  4288                           l1639:	
  4289  077A                     	movf	(___fladd@b),w
  4290  077A  085D               	bsf	status, 5	;RP0=1, select bank1
  4291  077B  1683               	bcf	status, 6	;RP1=0, select bank1
  4292  077C  1303               	movwf	(??___fladd+0)^080h+0
  4293  077D  00A0               	bcf	status, 5	;RP0=0, select bank0
  4294  077E  1283               	bcf	status, 6	;RP1=0, select bank0
  4295  077F  1303               	movf	(___fladd@b+1),w
  4296  0780  085E               	bsf	status, 5	;RP0=1, select bank1
  4297  0781  1683               	bcf	status, 6	;RP1=0, select bank1
  4298  0782  1303               	movwf	((??___fladd+0)^080h+0+1)
  4299  0783  00A1               	bcf	status, 5	;RP0=0, select bank0
  4300  0784  1283               	bcf	status, 6	;RP1=0, select bank0
  4301  0785  1303               	movf	(___fladd@b+2),w
  4302  0786  085F               	bsf	status, 5	;RP0=1, select bank1
  4303  0787  1683               	bcf	status, 6	;RP1=0, select bank1
  4304  0788  1303               	movwf	((??___fladd+0)^080h+0+2)
  4305  0789  00A2               	bcf	status, 5	;RP0=0, select bank0
  4306  078A  1283               	bcf	status, 6	;RP1=0, select bank0
  4307  078B  1303               	movf	(___fladd@b+3),w
  4308  078C  0860               	bsf	status, 5	;RP0=1, select bank1
  4309  078D  1683               	bcf	status, 6	;RP1=0, select bank1
  4310  078E  1303               	movwf	((??___fladd+0)^080h+0+3)
  4311  078F  00A3               	movlw	01h
  4312  0790  3001               	movwf	(??___fladd+4)^080h+0
  4313  0791  00A4               u2385:
  4314  0792                     	rlf	(??___fladd+0)^080h+3,w
  4315  0792  0D23               	rrf	(??___fladd+0)^080h+3,f
  4316  0793  0CA3               	rrf	(??___fladd+0)^080h+2,f
  4317  0794  0CA2               	rrf	(??___fladd+0)^080h+1,f
  4318  0795  0CA1               	rrf	(??___fladd+0)^080h+0,f
  4319  0796  0CA0               u2380:
  4320  0797                     	decfsz	(??___fladd+4)^080h+0,f
  4321  0797  0BA4               	goto	u2385
  4322  0798  2F92               	movf	3+(??___fladd+0)^080h+0,w
  4323  0799  0823               	bcf	status, 5	;RP0=0, select bank0
  4324  079A  1283               	bcf	status, 6	;RP1=0, select bank0
  4325  079B  1303               	movwf	(___fladd@b+3)
  4326  079C  00E0               	bsf	status, 5	;RP0=1, select bank1
  4327  079D  1683               	bcf	status, 6	;RP1=0, select bank1
  4328  079E  1303               	movf	2+(??___fladd+0)^080h+0,w
  4329  079F  0822               	bcf	status, 5	;RP0=0, select bank0
  4330  07A0  1283               	bcf	status, 6	;RP1=0, select bank0
  4331  07A1  1303               	movwf	(___fladd@b+2)
  4332  07A2  00DF               	bsf	status, 5	;RP0=1, select bank1
  4333  07A3  1683               	bcf	status, 6	;RP1=0, select bank1
  4334  07A4  1303               	movf	1+(??___fladd+0)^080h+0,w
  4335  07A5  0821               	bcf	status, 5	;RP0=0, select bank0
  4336  07A6  1283               	bcf	status, 6	;RP1=0, select bank0
  4337  07A7  1303               	movwf	(___fladd@b+1)
  4338  07A8  00DE               	bsf	status, 5	;RP0=1, select bank1
  4339  07A9  1683               	bcf	status, 6	;RP1=0, select bank1
  4340  07AA  1303               	movf	0+(??___fladd+0)^080h+0,w
  4341  07AB  0820               	bcf	status, 5	;RP0=0, select bank0
  4342  07AC  1283               	bcf	status, 6	;RP1=0, select bank0
  4343  07AD  1303               	movwf	(___fladd@b)
  4344  07AE  00DD               
  4345                           	line	207
  4346                           		incf	((___fladd@bexp)),w
  4347  07AF  0A67               	btfsc	status,2
  4348  07B0  1903               	goto	u2391
  4349  07B1  2FB3               	goto	u2390
  4350  07B2  2FB4               u2391:
  4351  07B3                     	goto	l408
  4352  07B3  2FBE               u2390:
  4353  07B4                     	line	208
  4354                           	
  4355                           l1641:	
  4356  07B4                     	movlw	low(01h)
  4357  07B4  3001               	bsf	status, 5	;RP0=1, select bank1
  4358  07B5  1683               	bcf	status, 6	;RP1=0, select bank1
  4359  07B6  1303               	movwf	(??___fladd+0)^080h+0
  4360  07B7  00A0               	movf	(??___fladd+0)^080h+0,w
  4361  07B8  0820               	bcf	status, 5	;RP0=0, select bank0
  4362  07B9  1283               	bcf	status, 6	;RP1=0, select bank0
  4363  07BA  1303               	addwf	(___fladd@bexp),f
  4364  07BB  07E7               	goto	l408
  4365  07BC  2FBE               	line	209
  4366                           	
  4367                           l410:	
  4368  07BD                     	goto	l408
  4369  07BD  2FBE               	line	210
  4370                           	
  4371                           l409:	
  4372  07BE                     	line	211
  4373                           	
  4374                           l408:	
  4375  07BE                     	line	215
  4376                           		incf	((___fladd@bexp)),w
  4377  07BE  0A67               	btfsc	status,2
  4378  07BF  1903               	goto	u2401
  4379  07C0  2FC2               	goto	u2400
  4380  07C1  2FC3               u2401:
  4381  07C2                     	goto	l1645
  4382  07C2  2FC9               u2400:
  4383  07C3                     	
  4384                           l1643:	
  4385  07C3                     	movf	((___fladd@bexp)),w
  4386  07C3  0867               	btfss	status,2
  4387  07C4  1D03               	goto	u2411
  4388  07C5  2FC7               	goto	u2410
  4389  07C6  2FC8               u2411:
  4390  07C7                     	goto	l1651
  4391  07C7  2FD9               u2410:
  4392  07C8                     	goto	l1645
  4393  07C8  2FC9               	
  4394                           l413:	
  4395  07C9                     	line	216
  4396                           	
  4397                           l1645:	
  4398  07C9                     	movlw	high highword(0)
  4399  07C9  3000               	movwf	(___fladd@b+3)
  4400  07CA  00E0               	movlw	low highword(0)
  4401  07CB  3000               	movwf	(___fladd@b+2)
  4402  07CC  00DF               	movlw	high(0)
  4403  07CD  3000               	movwf	(___fladd@b+1)
  4404  07CE  00DE               	movlw	low(0)
  4405  07CF  3000               	movwf	(___fladd@b)
  4406  07D0  00DD               
  4407                           	line	218
  4408                           	
  4409                           l1647:	
  4410  07D1                     	movf	((___fladd@bexp)),w
  4411  07D1  0867               	btfss	status,2
  4412  07D2  1D03               	goto	u2421
  4413  07D3  2FD5               	goto	u2420
  4414  07D4  2FD6               u2421:
  4415  07D5                     	goto	l1651
  4416  07D5  2FD9               u2420:
  4417  07D6                     	line	219
  4418                           	
  4419                           l1649:	
  4420  07D6                     	clrf	(___fladd@signs)
  4421  07D6  01E5               	goto	l1651
  4422  07D7  2FD9               	line	220
  4423                           	
  4424                           l414:	
  4425  07D8                     	goto	l1651
  4426  07D8  2FD9               	line	221
  4427                           	
  4428                           l411:	
  4429  07D9                     	line	225
  4430                           	
  4431                           l1651:	
  4432  07D9                     	btfss	(___fladd@bexp),(0)&7
  4433  07D9  1C67               	goto	u2431
  4434  07DA  2FDC               	goto	u2430
  4435  07DB  2FDD               u2431:
  4436  07DC                     	goto	l1655
  4437  07DC  2FDF               u2430:
  4438  07DD                     	line	226
  4439                           	
  4440                           l1653:	
  4441  07DD                     	bsf	0+(___fladd@b)+02h+(7/8),(7)&7
  4442  07DD  17DF               	line	227
  4443                           	goto	l416
  4444  07DE  2FE7               	line	229
  4445                           	
  4446                           l415:	
  4447  07DF                     	line	230
  4448                           	
  4449                           l1655:	
  4450  07DF                     	movlw	low(07Fh)
  4451  07DF  307F               	bsf	status, 5	;RP0=1, select bank1
  4452  07E0  1683               	bcf	status, 6	;RP1=0, select bank1
  4453  07E1  1303               	movwf	(??___fladd+0)^080h+0
  4454  07E2  00A0               	movf	(??___fladd+0)^080h+0,w
  4455  07E3  0820               	bcf	status, 5	;RP0=0, select bank0
  4456  07E4  1283               	bcf	status, 6	;RP1=0, select bank0
  4457  07E5  1303               	andwf	0+(___fladd@b)+02h,f
  4458  07E6  05DF               	line	231
  4459                           	
  4460                           l416:	
  4461  07E7                     	line	232
  4462                           	movf	(___fladd@bexp),w
  4463  07E7  0867               	bsf	status, 5	;RP0=1, select bank1
  4464  07E8  1683               	bcf	status, 6	;RP1=0, select bank1
  4465  07E9  1303               	movwf	(??___fladd+0)^080h+0
  4466  07EA  00A0               	clrc
  4467  07EB  1003               	rrf	(??___fladd+0)^080h+0,w
  4468  07EC  0C20               	movwf	(??___fladd+1)^080h+0
  4469  07ED  00A1               	movf	(??___fladd+1)^080h+0,w
  4470  07EE  0821               	bcf	status, 5	;RP0=0, select bank0
  4471  07EF  1283               	bcf	status, 6	;RP1=0, select bank0
  4472  07F0  1303               	movwf	0+(___fladd@b)+03h
  4473  07F1  00E0               	line	233
  4474                           	
  4475                           l1657:	
  4476  07F2                     	btfss	(___fladd@signs),(7)&7
  4477  07F2  1FE5               	goto	u2441
  4478  07F3  2FF5               	goto	u2440
  4479  07F4  2FF6               u2441:
  4480  07F5                     	goto	l417
  4481  07F5  2FF7               u2440:
  4482  07F6                     	line	234
  4483                           	
  4484                           l1659:	
  4485  07F6                     	bsf	0+(___fladd@b)+03h+(7/8),(7)&7
  4486  07F6  17E0               	line	235
  4487                           	
  4488                           l417:	
  4489  07F7                     	line	236
  4490                           	line	237
  4491                           	
  4492                           l387:	
  4493  07F7                     	return
  4494  07F7  0008               	opt stack 0
  4495                           GLOBAL	__end_of___fladd
  4496                           	__end_of___fladd:
  4497  07F8                     	signat	___fladd,8316
  4498                           	global	___wmul
  4499                           
  4500 ;; *************** function ___wmul *****************
  4501 ;; Defined at:
  4502 ;;		line 15 in file "C:\Program Files (x86)\Microchip\xc8\v1.45\sources\common\Umul16.c"
  4503 ;; Parameters:    Size  Location     Type
  4504 ;;  multiplier      2    0[COMMON] unsigned int 
  4505 ;;  multiplicand    2    2[COMMON] unsigned int 
  4506 ;; Auto vars:     Size  Location     Type
  4507 ;;  product         2    4[COMMON] unsigned int 
  4508 ;; Return value:  Size  Location     Type
  4509 ;;                  2    0[COMMON] unsigned int 
  4510 ;; Registers used:
  4511 ;;		wreg, status,2, status,0
  4512 ;; Tracked objects:
  4513 ;;		On entry : 0/0
  4514 ;;		On exit  : 0/0
  4515 ;;		Unchanged: 0/0
  4516 ;; Data sizes:     COMMON   BANK0   BANK1   BANK3   BANK2
  4517 ;;      Params:         4       0       0       0       0
  4518 ;;      Locals:         2       0       0       0       0
  4519 ;;      Temps:          0       0       0       0       0
  4520 ;;      Totals:         6       0       0       0       0
  4521 ;;Total ram usage:        6 bytes
  4522 ;; Hardware stack levels used:    1
  4523 ;; This function calls:
  4524 ;;		Nothing
  4525 ;; This function is called by:
  4526 ;;		_main
  4527 ;; This function uses a non-reentrant model
  4528 ;;
  4529                           psect	text8,local,class=CODE,delta=2,merge=1,group=2
  4530                           	file	"C:\Program Files (x86)\Microchip\xc8\v1.45\sources\common\Umul16.c"
  4531                           	line	15
  4532                           global __ptext8
  4533                           __ptext8:	;psect for function ___wmul
  4534  081C                     psect	text8
  4535                           	file	"C:\Program Files (x86)\Microchip\xc8\v1.45\sources\common\Umul16.c"
  4536                           	line	15
  4537                           	global	__size_of___wmul
  4538                           	__size_of___wmul	equ	__end_of___wmul-___wmul
  4539  0028                     	
  4540                           ___wmul:	
  4541  081C                     ;incstack = 0
  4542                           	opt	stack 7
  4543                           ; Regs used in ___wmul: [wreg+status,2+status,0]
  4544                           	line	43
  4545                           	
  4546                           l1683:	
  4547  081C                     	clrf	(___wmul@product)
  4548  081C  01F4               	clrf	(___wmul@product+1)
  4549  081D  01F5               	goto	l1685
  4550  081E  281F               	line	44
  4551                           	
  4552                           l132:	
  4553  081F                     	line	45
  4554                           	
  4555                           l1685:	
  4556  081F                     	btfss	(___wmul@multiplier),(0)&7
  4557  081F  1C70               	goto	u2481
  4558  0820  2822               	goto	u2480
  4559  0821  2823               u2481:
  4560  0822                     	goto	l133
  4561  0822  2829               u2480:
  4562  0823                     	line	46
  4563                           	
  4564                           l1687:	
  4565  0823                     	movf	(___wmul@multiplicand),w
  4566  0823  0872               	addwf	(___wmul@product),f
  4567  0824  07F4               	skipnc
  4568  0825  1803               	incf	(___wmul@product+1),f
  4569  0826  0AF5               	movf	(___wmul@multiplicand+1),w
  4570  0827  0873               	addwf	(___wmul@product+1),f
  4571  0828  07F5               	
  4572                           l133:	
  4573  0829                     	line	47
  4574                           	movlw	01h
  4575  0829  3001               	
  4576                           u2495:
  4577  082A                     	clrc
  4578  082A  1003               	rlf	(___wmul@multiplicand),f
  4579  082B  0DF2               	rlf	(___wmul@multiplicand+1),f
  4580  082C  0DF3               	addlw	-1
  4581  082D  3EFF               	skipz
  4582  082E  1D03               	goto	u2495
  4583  082F  282A               	line	48
  4584                           	
  4585                           l1689:	
  4586  0830                     	movlw	01h
  4587  0830  3001               	
  4588                           u2505:
  4589  0831                     	clrc
  4590  0831  1003               	rrf	(___wmul@multiplier+1),f
  4591  0832  0CF1               	rrf	(___wmul@multiplier),f
  4592  0833  0CF0               	addlw	-1
  4593  0834  3EFF               	skipz
  4594  0835  1D03               	goto	u2505
  4595  0836  2831               	line	49
  4596                           	
  4597                           l1691:	
  4598  0837                     	movf	((___wmul@multiplier)),w
  4599  0837  0870               iorwf	((___wmul@multiplier+1)),w
  4600  0838  0471               	btfss	status,2
  4601  0839  1D03               	goto	u2511
  4602  083A  283C               	goto	u2510
  4603  083B  283D               u2511:
  4604  083C                     	goto	l1685
  4605  083C  281F               u2510:
  4606  083D                     	goto	l1693
  4607  083D  283E               	
  4608                           l134:	
  4609  083E                     	line	52
  4610                           	
  4611                           l1693:	
  4612  083E                     	movf	(___wmul@product+1),w
  4613  083E  0875               	movwf	(?___wmul+1)
  4614  083F  00F1               	movf	(___wmul@product),w
  4615  0840  0874               	movwf	(?___wmul)
  4616  0841  00F0               	goto	l135
  4617  0842  2843               	
  4618                           l1695:	
  4619  0843                     	line	53
  4620                           	
  4621                           l135:	
  4622  0843                     	return
  4623  0843  0008               	opt stack 0
  4624                           GLOBAL	__end_of___wmul
  4625                           	__end_of___wmul:
  4626  0844                     	signat	___wmul,8314
  4627                           	global	___lwmod
  4628                           
  4629 ;; *************** function ___lwmod *****************
  4630 ;; Defined at:
  4631 ;;		line 6 in file "C:\Program Files (x86)\Microchip\xc8\v1.45\sources\common\lwmod.c"
  4632 ;; Parameters:    Size  Location     Type
  4633 ;;  divisor         2    0[COMMON] unsigned int 
  4634 ;;  dividend        2    2[COMMON] unsigned int 
  4635 ;; Auto vars:     Size  Location     Type
  4636 ;;  counter         1    5[COMMON] unsigned char 
  4637 ;; Return value:  Size  Location     Type
  4638 ;;                  2    0[COMMON] unsigned int 
  4639 ;; Registers used:
  4640 ;;		wreg, status,2, status,0
  4641 ;; Tracked objects:
  4642 ;;		On entry : 0/0
  4643 ;;		On exit  : 0/0
  4644 ;;		Unchanged: 0/0
  4645 ;; Data sizes:     COMMON   BANK0   BANK1   BANK3   BANK2
  4646 ;;      Params:         4       0       0       0       0
  4647 ;;      Locals:         1       0       0       0       0
  4648 ;;      Temps:          1       0       0       0       0
  4649 ;;      Totals:         6       0       0       0       0
  4650 ;;Total ram usage:        6 bytes
  4651 ;; Hardware stack levels used:    1
  4652 ;; This function calls:
  4653 ;;		Nothing
  4654 ;; This function is called by:
  4655 ;;		_main
  4656 ;; This function uses a non-reentrant model
  4657 ;;
  4658                           psect	text9,local,class=CODE,delta=2,merge=1,group=2
  4659                           	file	"C:\Program Files (x86)\Microchip\xc8\v1.45\sources\common\lwmod.c"
  4660                           	line	6
  4661                           global __ptext9
  4662                           __ptext9:	;psect for function ___lwmod
  4663  08AD                     psect	text9
  4664                           	file	"C:\Program Files (x86)\Microchip\xc8\v1.45\sources\common\lwmod.c"
  4665                           	line	6
  4666                           	global	__size_of___lwmod
  4667                           	__size_of___lwmod	equ	__end_of___lwmod-___lwmod
  4668  0041                     	
  4669                           ___lwmod:	
  4670  08AD                     ;incstack = 0
  4671                           	opt	stack 7
  4672                           ; Regs used in ___lwmod: [wreg+status,2+status,0]
  4673                           	line	13
  4674                           	
  4675                           l1749:	
  4676  08AD                     	movf	((___lwmod@divisor)),w
  4677  08AD  0870               iorwf	((___lwmod@divisor+1)),w
  4678  08AE  0471               	btfsc	status,2
  4679  08AF  1903               	goto	u2661
  4680  08B0  28B2               	goto	u2660
  4681  08B1  28B3               u2661:
  4682  08B2                     	goto	l1767
  4683  08B2  28E8               u2660:
  4684  08B3                     	line	14
  4685                           	
  4686                           l1751:	
  4687  08B3                     	clrf	(___lwmod@counter)
  4688  08B3  01F5               	incf	(___lwmod@counter),f
  4689  08B4  0AF5               	line	15
  4690                           	goto	l1757
  4691  08B5  28C2               	
  4692                           l353:	
  4693  08B6                     	line	16
  4694                           	
  4695                           l1753:	
  4696  08B6                     	movlw	01h
  4697  08B6  3001               	
  4698                           u2675:
  4699  08B7                     	clrc
  4700  08B7  1003               	rlf	(___lwmod@divisor),f
  4701  08B8  0DF0               	rlf	(___lwmod@divisor+1),f
  4702  08B9  0DF1               	addlw	-1
  4703  08BA  3EFF               	skipz
  4704  08BB  1D03               	goto	u2675
  4705  08BC  28B7               	line	17
  4706                           	
  4707                           l1755:	
  4708  08BD                     	movlw	low(01h)
  4709  08BD  3001               	movwf	(??___lwmod+0)+0
  4710  08BE  00F4               	movf	(??___lwmod+0)+0,w
  4711  08BF  0874               	addwf	(___lwmod@counter),f
  4712  08C0  07F5               	goto	l1757
  4713  08C1  28C2               	line	18
  4714                           	
  4715                           l352:	
  4716  08C2                     	line	15
  4717                           	
  4718                           l1757:	
  4719  08C2                     	btfss	(___lwmod@divisor+1),(15)&7
  4720  08C2  1FF1               	goto	u2681
  4721  08C3  28C5               	goto	u2680
  4722  08C4  28C6               u2681:
  4723  08C5                     	goto	l1753
  4724  08C5  28B6               u2680:
  4725  08C6                     	goto	l1759
  4726  08C6  28C8               	
  4727                           l354:	
  4728  08C7                     	goto	l1759
  4729  08C7  28C8               	line	19
  4730                           	
  4731                           l355:	
  4732  08C8                     	line	20
  4733                           	
  4734                           l1759:	
  4735  08C8                     	movf	(___lwmod@divisor+1),w
  4736  08C8  0871               	subwf	(___lwmod@dividend+1),w
  4737  08C9  0273               	skipz
  4738  08CA  1D03               	goto	u2695
  4739  08CB  28CE               	movf	(___lwmod@divisor),w
  4740  08CC  0870               	subwf	(___lwmod@dividend),w
  4741  08CD  0272               u2695:
  4742  08CE                     	skipc
  4743  08CE  1C03               	goto	u2691
  4744  08CF  28D1               	goto	u2690
  4745  08D0  28D2               u2691:
  4746  08D1                     	goto	l1763
  4747  08D1  28D9               u2690:
  4748  08D2                     	line	21
  4749                           	
  4750                           l1761:	
  4751  08D2                     	movf	(___lwmod@divisor),w
  4752  08D2  0870               	subwf	(___lwmod@dividend),f
  4753  08D3  02F2               	movf	(___lwmod@divisor+1),w
  4754  08D4  0871               	skipc
  4755  08D5  1C03               	decf	(___lwmod@dividend+1),f
  4756  08D6  03F3               	subwf	(___lwmod@dividend+1),f
  4757  08D7  02F3               	goto	l1763
  4758  08D8  28D9               	
  4759                           l356:	
  4760  08D9                     	line	22
  4761                           	
  4762                           l1763:	
  4763  08D9                     	movlw	01h
  4764  08D9  3001               	
  4765                           u2705:
  4766  08DA                     	clrc
  4767  08DA  1003               	rrf	(___lwmod@divisor+1),f
  4768  08DB  0CF1               	rrf	(___lwmod@divisor),f
  4769  08DC  0CF0               	addlw	-1
  4770  08DD  3EFF               	skipz
  4771  08DE  1D03               	goto	u2705
  4772  08DF  28DA               	line	23
  4773                           	
  4774                           l1765:	
  4775  08E0                     	movlw	01h
  4776  08E0  3001               	subwf	(___lwmod@counter),f
  4777  08E1  02F5               	btfss	status,2
  4778  08E2  1D03               	goto	u2711
  4779  08E3  28E5               	goto	u2710
  4780  08E4  28E6               u2711:
  4781  08E5                     	goto	l1759
  4782  08E5  28C8               u2710:
  4783  08E6                     	goto	l1767
  4784  08E6  28E8               	
  4785                           l357:	
  4786  08E7                     	goto	l1767
  4787  08E7  28E8               	line	24
  4788                           	
  4789                           l351:	
  4790  08E8                     	line	25
  4791                           	
  4792                           l1767:	
  4793  08E8                     	movf	(___lwmod@dividend+1),w
  4794  08E8  0873               	movwf	(?___lwmod+1)
  4795  08E9  00F1               	movf	(___lwmod@dividend),w
  4796  08EA  0872               	movwf	(?___lwmod)
  4797  08EB  00F0               	goto	l358
  4798  08EC  28ED               	
  4799                           l1769:	
  4800  08ED                     	line	26
  4801                           	
  4802                           l358:	
  4803  08ED                     	return
  4804  08ED  0008               	opt stack 0
  4805                           GLOBAL	__end_of___lwmod
  4806                           	__end_of___lwmod:
  4807  08EE                     	signat	___lwmod,8314
  4808                           	global	___lwdiv
  4809                           
  4810 ;; *************** function ___lwdiv *****************
  4811 ;; Defined at:
  4812 ;;		line 6 in file "C:\Program Files (x86)\Microchip\xc8\v1.45\sources\common\lwdiv.c"
  4813 ;; Parameters:    Size  Location     Type
  4814 ;;  divisor         2    6[COMMON] unsigned int 
  4815 ;;  dividend        2    8[COMMON] unsigned int 
  4816 ;; Auto vars:     Size  Location     Type
  4817 ;;  quotient        2   11[COMMON] unsigned int 
  4818 ;;  counter         1   13[COMMON] unsigned char 
  4819 ;; Return value:  Size  Location     Type
  4820 ;;                  2    6[COMMON] unsigned int 
  4821 ;; Registers used:
  4822 ;;		wreg, status,2, status,0
  4823 ;; Tracked objects:
  4824 ;;		On entry : 0/0
  4825 ;;		On exit  : 0/0
  4826 ;;		Unchanged: 0/0
  4827 ;; Data sizes:     COMMON   BANK0   BANK1   BANK3   BANK2
  4828 ;;      Params:         4       0       0       0       0
  4829 ;;      Locals:         3       0       0       0       0
  4830 ;;      Temps:          1       0       0       0       0
  4831 ;;      Totals:         8       0       0       0       0
  4832 ;;Total ram usage:        8 bytes
  4833 ;; Hardware stack levels used:    1
  4834 ;; This function calls:
  4835 ;;		Nothing
  4836 ;; This function is called by:
  4837 ;;		_main
  4838 ;; This function uses a non-reentrant model
  4839 ;;
  4840                           psect	text10,local,class=CODE,delta=2,merge=1,group=2
  4841                           	file	"C:\Program Files (x86)\Microchip\xc8\v1.45\sources\common\lwdiv.c"
  4842                           	line	6
  4843                           global __ptext10
  4844                           __ptext10:	;psect for function ___lwdiv
  4845  08EE                     psect	text10
  4846                           	file	"C:\Program Files (x86)\Microchip\xc8\v1.45\sources\common\lwdiv.c"
  4847                           	line	6
  4848                           	global	__size_of___lwdiv
  4849                           	__size_of___lwdiv	equ	__end_of___lwdiv-___lwdiv
  4850  004B                     	
  4851                           ___lwdiv:	
  4852  08EE                     ;incstack = 0
  4853                           	opt	stack 7
  4854                           ; Regs used in ___lwdiv: [wreg+status,2+status,0]
  4855                           	line	14
  4856                           	
  4857                           l1723:	
  4858  08EE                     	clrf	(___lwdiv@quotient)
  4859  08EE  01FB               	clrf	(___lwdiv@quotient+1)
  4860  08EF  01FC               	line	15
  4861                           	
  4862                           l1725:	
  4863  08F0                     	movf	((___lwdiv@divisor)),w
  4864  08F0  0876               iorwf	((___lwdiv@divisor+1)),w
  4865  08F1  0477               	btfsc	status,2
  4866  08F2  1903               	goto	u2591
  4867  08F3  28F5               	goto	u2590
  4868  08F4  28F6               u2591:
  4869  08F5                     	goto	l1745
  4870  08F5  2933               u2590:
  4871  08F6                     	line	16
  4872                           	
  4873                           l1727:	
  4874  08F6                     	clrf	(___lwdiv@counter)
  4875  08F6  01FD               	incf	(___lwdiv@counter),f
  4876  08F7  0AFD               	line	17
  4877                           	goto	l1733
  4878  08F8  2905               	
  4879                           l343:	
  4880  08F9                     	line	18
  4881                           	
  4882                           l1729:	
  4883  08F9                     	movlw	01h
  4884  08F9  3001               	
  4885                           u2605:
  4886  08FA                     	clrc
  4887  08FA  1003               	rlf	(___lwdiv@divisor),f
  4888  08FB  0DF6               	rlf	(___lwdiv@divisor+1),f
  4889  08FC  0DF7               	addlw	-1
  4890  08FD  3EFF               	skipz
  4891  08FE  1D03               	goto	u2605
  4892  08FF  28FA               	line	19
  4893                           	
  4894                           l1731:	
  4895  0900                     	movlw	low(01h)
  4896  0900  3001               	movwf	(??___lwdiv+0)+0
  4897  0901  00FA               	movf	(??___lwdiv+0)+0,w
  4898  0902  087A               	addwf	(___lwdiv@counter),f
  4899  0903  07FD               	goto	l1733
  4900  0904  2905               	line	20
  4901                           	
  4902                           l342:	
  4903  0905                     	line	17
  4904                           	
  4905                           l1733:	
  4906  0905                     	btfss	(___lwdiv@divisor+1),(15)&7
  4907  0905  1FF7               	goto	u2611
  4908  0906  2908               	goto	u2610
  4909  0907  2909               u2611:
  4910  0908                     	goto	l1729
  4911  0908  28F9               u2610:
  4912  0909                     	goto	l1735
  4913  0909  290B               	
  4914                           l344:	
  4915  090A                     	goto	l1735
  4916  090A  290B               	line	21
  4917                           	
  4918                           l345:	
  4919  090B                     	line	22
  4920                           	
  4921                           l1735:	
  4922  090B                     	movlw	01h
  4923  090B  3001               	
  4924                           u2625:
  4925  090C                     	clrc
  4926  090C  1003               	rlf	(___lwdiv@quotient),f
  4927  090D  0DFB               	rlf	(___lwdiv@quotient+1),f
  4928  090E  0DFC               	addlw	-1
  4929  090F  3EFF               	skipz
  4930  0910  1D03               	goto	u2625
  4931  0911  290C               	line	23
  4932                           	movf	(___lwdiv@divisor+1),w
  4933  0912  0877               	subwf	(___lwdiv@dividend+1),w
  4934  0913  0279               	skipz
  4935  0914  1D03               	goto	u2635
  4936  0915  2918               	movf	(___lwdiv@divisor),w
  4937  0916  0876               	subwf	(___lwdiv@dividend),w
  4938  0917  0278               u2635:
  4939  0918                     	skipc
  4940  0918  1C03               	goto	u2631
  4941  0919  291B               	goto	u2630
  4942  091A  291C               u2631:
  4943  091B                     	goto	l1741
  4944  091B  2924               u2630:
  4945  091C                     	line	24
  4946                           	
  4947                           l1737:	
  4948  091C                     	movf	(___lwdiv@divisor),w
  4949  091C  0876               	subwf	(___lwdiv@dividend),f
  4950  091D  02F8               	movf	(___lwdiv@divisor+1),w
  4951  091E  0877               	skipc
  4952  091F  1C03               	decf	(___lwdiv@dividend+1),f
  4953  0920  03F9               	subwf	(___lwdiv@dividend+1),f
  4954  0921  02F9               	line	25
  4955                           	
  4956                           l1739:	
  4957  0922                     	bsf	(___lwdiv@quotient)+(0/8),(0)&7
  4958  0922  147B               	goto	l1741
  4959  0923  2924               	line	26
  4960                           	
  4961                           l346:	
  4962  0924                     	line	27
  4963                           	
  4964                           l1741:	
  4965  0924                     	movlw	01h
  4966  0924  3001               	
  4967                           u2645:
  4968  0925                     	clrc
  4969  0925  1003               	rrf	(___lwdiv@divisor+1),f
  4970  0926  0CF7               	rrf	(___lwdiv@divisor),f
  4971  0927  0CF6               	addlw	-1
  4972  0928  3EFF               	skipz
  4973  0929  1D03               	goto	u2645
  4974  092A  2925               	line	28
  4975                           	
  4976                           l1743:	
  4977  092B                     	movlw	01h
  4978  092B  3001               	subwf	(___lwdiv@counter),f
  4979  092C  02FD               	btfss	status,2
  4980  092D  1D03               	goto	u2651
  4981  092E  2930               	goto	u2650
  4982  092F  2931               u2651:
  4983  0930                     	goto	l1735
  4984  0930  290B               u2650:
  4985  0931                     	goto	l1745
  4986  0931  2933               	
  4987                           l347:	
  4988  0932                     	goto	l1745
  4989  0932  2933               	line	29
  4990                           	
  4991                           l341:	
  4992  0933                     	line	30
  4993                           	
  4994                           l1745:	
  4995  0933                     	movf	(___lwdiv@quotient+1),w
  4996  0933  087C               	movwf	(?___lwdiv+1)
  4997  0934  00F7               	movf	(___lwdiv@quotient),w
  4998  0935  087B               	movwf	(?___lwdiv)
  4999  0936  00F6               	goto	l348
  5000  0937  2938               	
  5001                           l1747:	
  5002  0938                     	line	31
  5003                           	
  5004                           l348:	
  5005  0938                     	return
  5006  0938  0008               	opt stack 0
  5007                           GLOBAL	__end_of___lwdiv
  5008                           	__end_of___lwdiv:
  5009  0939                     	signat	___lwdiv,8314
  5010                           	global	___flmul
  5011                           
  5012 ;; *************** function ___flmul *****************
  5013 ;; Defined at:
  5014 ;;		line 8 in file "C:\Program Files (x86)\Microchip\xc8\v1.45\sources\common\sprcmul.c"
  5015 ;; Parameters:    Size  Location     Type
  5016 ;;  b               4    0[BANK0 ] unsigned int 
  5017 ;;  a               4    4[BANK0 ] unsigned int 
  5018 ;; Auto vars:     Size  Location     Type
  5019 ;;  prod            4   15[BANK0 ] struct .
  5020 ;;  grs             4    9[BANK0 ] unsigned long 
  5021 ;;  temp            2   19[BANK0 ] struct .
  5022 ;;  bexp            1   14[BANK0 ] unsigned char 
  5023 ;;  aexp            1   13[BANK0 ] unsigned char 
  5024 ;;  sign            1    8[BANK0 ] unsigned char 
  5025 ;; Return value:  Size  Location     Type
  5026 ;;                  4    0[BANK0 ] unsigned char 
  5027 ;; Registers used:
  5028 ;;		wreg, status,2, status,0, btemp+1, pclath, cstack
  5029 ;; Tracked objects:
  5030 ;;		On entry : 0/0
  5031 ;;		On exit  : 0/0
  5032 ;;		Unchanged: 0/0
  5033 ;; Data sizes:     COMMON   BANK0   BANK1   BANK3   BANK2
  5034 ;;      Params:         0       8       0       0       0
  5035 ;;      Locals:         0      13       0       0       0
  5036 ;;      Temps:          5       0       0       0       0
  5037 ;;      Totals:         5      21       0       0       0
  5038 ;;Total ram usage:       26 bytes
  5039 ;; Hardware stack levels used:    1
  5040 ;; Hardware stack levels required when called:    1
  5041 ;; This function calls:
  5042 ;;		__Umul8_16
  5043 ;; This function is called by:
  5044 ;;		_main
  5045 ;; This function uses a non-reentrant model
  5046 ;;
  5047                           psect	text11,local,class=CODE,delta=2,merge=1,group=2
  5048                           	file	"C:\Program Files (x86)\Microchip\xc8\v1.45\sources\common\sprcmul.c"
  5049                           	line	8
  5050                           global __ptext11
  5051                           __ptext11:	;psect for function ___flmul
  5052  00EE                     psect	text11
  5053                           	file	"C:\Program Files (x86)\Microchip\xc8\v1.45\sources\common\sprcmul.c"
  5054                           	line	8
  5055                           	global	__size_of___flmul
  5056                           	__size_of___flmul	equ	__end_of___flmul-___flmul
  5057  0375                     	
  5058                           ___flmul:	
  5059  00EE                     ;incstack = 0
  5060                           	opt	stack 6
  5061                           ; Regs used in ___flmul: [wreg+status,2+status,0+btemp+1+pclath+cstack]
  5062                           	line	17
  5063                           	
  5064                           l1909:	
  5065  00EE                     	bcf	status, 5	;RP0=0, select bank0
  5066  00EE  1283               	bcf	status, 6	;RP1=0, select bank0
  5067  00EF  1303               	movf	0+(___flmul@b)+03h,w
  5068  00F0  0823               	andlw	080h
  5069  00F1  3980               	movwf	(??___flmul+0)+0
  5070  00F2  00F9               	movf	(??___flmul+0)+0,w
  5071  00F3  0879               	movwf	(___flmul@sign)
  5072  00F4  00A8               	line	18
  5073                           	
  5074                           l1911:	
  5075  00F5                     	movf	0+(___flmul@b)+03h,w
  5076  00F5  0823               	movwf	(??___flmul+0)+0
  5077  00F6  00F9               	addwf	(??___flmul+0)+0,w
  5078  00F7  0779               	movwf	(??___flmul+1)+0
  5079  00F8  00FA               	movf	(??___flmul+1)+0,w
  5080  00F9  087A               	movwf	(___flmul@bexp)
  5081  00FA  00AE               	line	19
  5082                           	
  5083                           l1913:	
  5084  00FB                     	btfss	0+(___flmul@b)+02h,(7)&7
  5085  00FB  1FA2               	goto	u3011
  5086  00FC  28FE               	goto	u3010
  5087  00FD  28FF               u3011:
  5088  00FE                     	goto	l1917
  5089  00FE  2901               u3010:
  5090  00FF                     	line	20
  5091                           	
  5092                           l1915:	
  5093  00FF                     	bsf	(___flmul@bexp)+(0/8),(0)&7
  5094  00FF  142E               	goto	l1917
  5095  0100  2901               	line	21
  5096                           	
  5097                           l459:	
  5098  0101                     	line	24
  5099                           	
  5100                           l1917:	
  5101  0101                     	movf	((___flmul@bexp)),w
  5102  0101  082E               	btfsc	status,2
  5103  0102  1903               	goto	u3021
  5104  0103  2905               	goto	u3020
  5105  0104  2906               u3021:
  5106  0105                     	goto	l1925
  5107  0105  2916               u3020:
  5108  0106                     	line	26
  5109                           	
  5110                           l1919:	
  5111  0106                     		incf	((___flmul@bexp)),w
  5112  0106  0A2E               	btfss	status,2
  5113  0107  1D03               	goto	u3031
  5114  0108  290A               	goto	u3030
  5115  0109  290B               u3031:
  5116  010A                     	goto	l1923
  5117  010A  2914               u3030:
  5118  010B                     	line	28
  5119                           	
  5120                           l1921:	
  5121  010B                     	movlw	0x0
  5122  010B  3000               	movwf	(___flmul@b+3)
  5123  010C  00A3               	movlw	0x0
  5124  010D  3000               	movwf	(___flmul@b+2)
  5125  010E  00A2               	movlw	0x0
  5126  010F  3000               	movwf	(___flmul@b+1)
  5127  0110  00A1               	movlw	0x0
  5128  0111  3000               	movwf	(___flmul@b)
  5129  0112  00A0               
  5130                           	goto	l1923
  5131  0113  2914               	line	29
  5132                           	
  5133                           l461:	
  5134  0114                     	line	31
  5135                           	
  5136                           l1923:	
  5137  0114                     	bsf	(___flmul@b)+(23/8),(23)&7
  5138  0114  17A2               	line	33
  5139                           	goto	l1927
  5140  0115  291F               	line	34
  5141                           	
  5142                           l460:	
  5143  0116                     	line	36
  5144                           	
  5145                           l1925:	
  5146  0116                     	movlw	0x0
  5147  0116  3000               	movwf	(___flmul@b+3)
  5148  0117  00A3               	movlw	0x0
  5149  0118  3000               	movwf	(___flmul@b+2)
  5150  0119  00A2               	movlw	0x0
  5151  011A  3000               	movwf	(___flmul@b+1)
  5152  011B  00A1               	movlw	0x0
  5153  011C  3000               	movwf	(___flmul@b)
  5154  011D  00A0               
  5155                           	goto	l1927
  5156  011E  291F               	line	37
  5157                           	
  5158                           l462:	
  5159  011F                     	line	39
  5160                           	
  5161                           l1927:	
  5162  011F                     	movf	0+(___flmul@a)+03h,w
  5163  011F  0827               	andlw	080h
  5164  0120  3980               	movwf	(??___flmul+0)+0
  5165  0121  00F9               	movf	(??___flmul+0)+0,w
  5166  0122  0879               	xorwf	(___flmul@sign),f
  5167  0123  06A8               	line	40
  5168                           	
  5169                           l1929:	
  5170  0124                     	movf	0+(___flmul@a)+03h,w
  5171  0124  0827               	movwf	(??___flmul+0)+0
  5172  0125  00F9               	addwf	(??___flmul+0)+0,w
  5173  0126  0779               	movwf	(??___flmul+1)+0
  5174  0127  00FA               	movf	(??___flmul+1)+0,w
  5175  0128  087A               	movwf	(___flmul@aexp)
  5176  0129  00AD               	line	41
  5177                           	
  5178                           l1931:	
  5179  012A                     	btfss	0+(___flmul@a)+02h,(7)&7
  5180  012A  1FA6               	goto	u3041
  5181  012B  292D               	goto	u3040
  5182  012C  292E               u3041:
  5183  012D                     	goto	l1935
  5184  012D  2930               u3040:
  5185  012E                     	line	42
  5186                           	
  5187                           l1933:	
  5188  012E                     	bsf	(___flmul@aexp)+(0/8),(0)&7
  5189  012E  142D               	goto	l1935
  5190  012F  2930               	line	43
  5191                           	
  5192                           l463:	
  5193  0130                     	line	45
  5194                           	
  5195                           l1935:	
  5196  0130                     	movf	((___flmul@aexp)),w
  5197  0130  082D               	btfsc	status,2
  5198  0131  1903               	goto	u3051
  5199  0132  2934               	goto	u3050
  5200  0133  2935               u3051:
  5201  0134                     	goto	l1943
  5202  0134  2945               u3050:
  5203  0135                     	line	48
  5204                           	
  5205                           l1937:	
  5206  0135                     		incf	((___flmul@aexp)),w
  5207  0135  0A2D               	btfss	status,2
  5208  0136  1D03               	goto	u3061
  5209  0137  2939               	goto	u3060
  5210  0138  293A               u3061:
  5211  0139                     	goto	l1941
  5212  0139  2943               u3060:
  5213  013A                     	line	50
  5214                           	
  5215                           l1939:	
  5216  013A                     	movlw	0x0
  5217  013A  3000               	movwf	(___flmul@a+3)
  5218  013B  00A7               	movlw	0x0
  5219  013C  3000               	movwf	(___flmul@a+2)
  5220  013D  00A6               	movlw	0x0
  5221  013E  3000               	movwf	(___flmul@a+1)
  5222  013F  00A5               	movlw	0x0
  5223  0140  3000               	movwf	(___flmul@a)
  5224  0141  00A4               
  5225                           	goto	l1941
  5226  0142  2943               	line	51
  5227                           	
  5228                           l465:	
  5229  0143                     	line	53
  5230                           	
  5231                           l1941:	
  5232  0143                     	bsf	(___flmul@a)+(23/8),(23)&7
  5233  0143  17A6               	line	54
  5234                           	goto	l1945
  5235  0144  294E               	line	55
  5236                           	
  5237                           l464:	
  5238  0145                     	line	57
  5239                           	
  5240                           l1943:	
  5241  0145                     	movlw	0x0
  5242  0145  3000               	movwf	(___flmul@a+3)
  5243  0146  00A7               	movlw	0x0
  5244  0147  3000               	movwf	(___flmul@a+2)
  5245  0148  00A6               	movlw	0x0
  5246  0149  3000               	movwf	(___flmul@a+1)
  5247  014A  00A5               	movlw	0x0
  5248  014B  3000               	movwf	(___flmul@a)
  5249  014C  00A4               
  5250                           	goto	l1945
  5251  014D  294E               	line	58
  5252                           	
  5253                           l466:	
  5254  014E                     	line	65
  5255                           	
  5256                           l1945:	
  5257  014E                     	movf	((___flmul@aexp)),w
  5258  014E  082D               	btfsc	status,2
  5259  014F  1903               	goto	u3071
  5260  0150  2952               	goto	u3070
  5261  0151  2953               u3071:
  5262  0152                     	goto	l1949
  5263  0152  2959               u3070:
  5264  0153                     	
  5265                           l1947:	
  5266  0153                     	movf	((___flmul@bexp)),w
  5267  0153  082E               	btfss	status,2
  5268  0154  1D03               	goto	u3081
  5269  0155  2957               	goto	u3080
  5270  0156  2958               u3081:
  5271  0157                     	goto	l1953
  5272  0157  2963               u3080:
  5273  0158                     	goto	l1949
  5274  0158  2959               	
  5275                           l469:	
  5276  0159                     	line	66
  5277                           	
  5278                           l1949:	
  5279  0159                     	movlw	0x0
  5280  0159  3000               	movwf	(?___flmul+3)
  5281  015A  00A3               	movlw	0x0
  5282  015B  3000               	movwf	(?___flmul+2)
  5283  015C  00A2               	movlw	0x0
  5284  015D  3000               	movwf	(?___flmul+1)
  5285  015E  00A1               	movlw	0x0
  5286  015F  3000               	movwf	(?___flmul)
  5287  0160  00A0               
  5288                           	goto	l470
  5289  0161  2C62               	
  5290                           l1951:	
  5291  0162                     	goto	l470
  5292  0162  2C62               	line	67
  5293                           	
  5294                           l467:	
  5295  0163                     	line	119
  5296                           	
  5297                           l1953:	
  5298  0163                     	movf	(___flmul@b),w
  5299  0163  0820               	movwf	(??___flmul+0)+0
  5300  0164  00F9               	movf	(??___flmul+0)+0,w
  5301  0165  0879               	movwf	(__Umul8_16@multiplicand)
  5302  0166  00F0               	movf	0+(___flmul@a)+02h,w
  5303  0167  0826               	fcall	__Umul8_16
  5304  0168  120A  158A  2044  120A  118A  	movf	(1+(?__Umul8_16)),w
  5305  016D  0871               	bcf	status, 5	;RP0=0, select bank0
  5306  016E  1283               	bcf	status, 6	;RP1=0, select bank0
  5307  016F  1303               	movwf	(___flmul@temp+1)
  5308  0170  00B4               	movf	(0+(?__Umul8_16)),w
  5309  0171  0870               	movwf	(___flmul@temp)
  5310  0172  00B3               	line	120
  5311                           	
  5312                           l1955:	
  5313  0173                     	movf	(___flmul@temp),w
  5314  0173  0833               	movwf	(??___flmul+0)+0
  5315  0174  00F9               	clrf	(??___flmul+0)+0+1
  5316  0175  01FA               	clrf	(??___flmul+0)+0+2
  5317  0176  01FB               	clrf	(??___flmul+0)+0+3
  5318  0177  01FC               	movf	3+(??___flmul+0)+0,w
  5319  0178  087C               	movwf	(___flmul@grs+3)
  5320  0179  00AC               	movf	2+(??___flmul+0)+0,w
  5321  017A  087B               	movwf	(___flmul@grs+2)
  5322  017B  00AB               	movf	1+(??___flmul+0)+0,w
  5323  017C  087A               	movwf	(___flmul@grs+1)
  5324  017D  00AA               	movf	0+(??___flmul+0)+0,w
  5325  017E  0879               	movwf	(___flmul@grs)
  5326  017F  00A9               
  5327                           	line	121
  5328                           	
  5329                           l1957:	
  5330  0180                     	movf	0+(___flmul@temp)+01h,w
  5331  0180  0834               	movwf	(??___flmul+0)+0
  5332  0181  00F9               	clrf	(??___flmul+0)+0+1
  5333  0182  01FA               	clrf	(??___flmul+0)+0+2
  5334  0183  01FB               	clrf	(??___flmul+0)+0+3
  5335  0184  01FC               	movf	3+(??___flmul+0)+0,w
  5336  0185  087C               	movwf	(___flmul@prod+3)
  5337  0186  00B2               	movf	2+(??___flmul+0)+0,w
  5338  0187  087B               	movwf	(___flmul@prod+2)
  5339  0188  00B1               	movf	1+(??___flmul+0)+0,w
  5340  0189  087A               	movwf	(___flmul@prod+1)
  5341  018A  00B0               	movf	0+(??___flmul+0)+0,w
  5342  018B  0879               	movwf	(___flmul@prod)
  5343  018C  00AF               
  5344                           	line	122
  5345                           	movf	0+(___flmul@b)+01h,w
  5346  018D  0821               	movwf	(??___flmul+0)+0
  5347  018E  00F9               	movf	(??___flmul+0)+0,w
  5348  018F  0879               	movwf	(__Umul8_16@multiplicand)
  5349  0190  00F0               	movf	0+(___flmul@a)+01h,w
  5350  0191  0825               	fcall	__Umul8_16
  5351  0192  120A  158A  2044  120A  118A  	movf	(1+(?__Umul8_16)),w
  5352  0197  0871               	bcf	status, 5	;RP0=0, select bank0
  5353  0198  1283               	bcf	status, 6	;RP1=0, select bank0
  5354  0199  1303               	movwf	(___flmul@temp+1)
  5355  019A  00B4               	movf	(0+(?__Umul8_16)),w
  5356  019B  0870               	movwf	(___flmul@temp)
  5357  019C  00B3               	line	123
  5358                           	
  5359                           l1959:	
  5360  019D                     	movf	(___flmul@temp),w
  5361  019D  0833               	movwf	(??___flmul+0)+0
  5362  019E  00F9               	clrf	(??___flmul+0)+0+1
  5363  019F  01FA               	clrf	(??___flmul+0)+0+2
  5364  01A0  01FB               	clrf	(??___flmul+0)+0+3
  5365  01A1  01FC               	movf	0+(??___flmul+0)+0,w
  5366  01A2  0879               	addwf	(___flmul@grs),f
  5367  01A3  07A9               	movf	1+(??___flmul+0)+0,w
  5368  01A4  087A               	clrz
  5369  01A5  1103               	skipnc
  5370  01A6  1803               	addlw	1
  5371  01A7  3E01               	skipnz
  5372  01A8  1903               	goto	u3091
  5373  01A9  29AB               	addwf	(___flmul@grs+1),f
  5374  01AA  07AA               u3091:
  5375  01AB                     	movf	2+(??___flmul+0)+0,w
  5376  01AB  087B               	clrz
  5377  01AC  1103               	skipnc
  5378  01AD  1803               	addlw	1
  5379  01AE  3E01               	skipnz
  5380  01AF  1903               	goto	u3092
  5381  01B0  29B2               	addwf	(___flmul@grs+2),f
  5382  01B1  07AB               u3092:
  5383  01B2                     	movf	3+(??___flmul+0)+0,w
  5384  01B2  087C               	clrz
  5385  01B3  1103               	skipnc
  5386  01B4  1803               	addlw	1
  5387  01B5  3E01               	skipnz
  5388  01B6  1903               	goto	u3093
  5389  01B7  29B9               	addwf	(___flmul@grs+3),f
  5390  01B8  07AC               u3093:
  5391  01B9                     
  5392                           	line	124
  5393                           	
  5394                           l1961:	
  5395  01B9                     	movf	0+(___flmul@temp)+01h,w
  5396  01B9  0834               	movwf	(??___flmul+0)+0
  5397  01BA  00F9               	clrf	(??___flmul+0)+0+1
  5398  01BB  01FA               	clrf	(??___flmul+0)+0+2
  5399  01BC  01FB               	clrf	(??___flmul+0)+0+3
  5400  01BD  01FC               	movf	0+(??___flmul+0)+0,w
  5401  01BE  0879               	addwf	(___flmul@prod),f
  5402  01BF  07AF               	movf	1+(??___flmul+0)+0,w
  5403  01C0  087A               	clrz
  5404  01C1  1103               	skipnc
  5405  01C2  1803               	addlw	1
  5406  01C3  3E01               	skipnz
  5407  01C4  1903               	goto	u3101
  5408  01C5  29C7               	addwf	(___flmul@prod+1),f
  5409  01C6  07B0               u3101:
  5410  01C7                     	movf	2+(??___flmul+0)+0,w
  5411  01C7  087B               	clrz
  5412  01C8  1103               	skipnc
  5413  01C9  1803               	addlw	1
  5414  01CA  3E01               	skipnz
  5415  01CB  1903               	goto	u3102
  5416  01CC  29CE               	addwf	(___flmul@prod+2),f
  5417  01CD  07B1               u3102:
  5418  01CE                     	movf	3+(??___flmul+0)+0,w
  5419  01CE  087C               	clrz
  5420  01CF  1103               	skipnc
  5421  01D0  1803               	addlw	1
  5422  01D1  3E01               	skipnz
  5423  01D2  1903               	goto	u3103
  5424  01D3  29D5               	addwf	(___flmul@prod+3),f
  5425  01D4  07B2               u3103:
  5426  01D5                     
  5427                           	line	125
  5428                           	movf	0+(___flmul@b)+02h,w
  5429  01D5  0822               	movwf	(??___flmul+0)+0
  5430  01D6  00F9               	movf	(??___flmul+0)+0,w
  5431  01D7  0879               	movwf	(__Umul8_16@multiplicand)
  5432  01D8  00F0               	movf	(___flmul@a),w
  5433  01D9  0824               	fcall	__Umul8_16
  5434  01DA  120A  158A  2044  120A  118A  	movf	(1+(?__Umul8_16)),w
  5435  01DF  0871               	bcf	status, 5	;RP0=0, select bank0
  5436  01E0  1283               	bcf	status, 6	;RP1=0, select bank0
  5437  01E1  1303               	movwf	(___flmul@temp+1)
  5438  01E2  00B4               	movf	(0+(?__Umul8_16)),w
  5439  01E3  0870               	movwf	(___flmul@temp)
  5440  01E4  00B3               	line	126
  5441                           	
  5442                           l1963:	
  5443  01E5                     	movf	(___flmul@temp),w
  5444  01E5  0833               	movwf	(??___flmul+0)+0
  5445  01E6  00F9               	clrf	(??___flmul+0)+0+1
  5446  01E7  01FA               	clrf	(??___flmul+0)+0+2
  5447  01E8  01FB               	clrf	(??___flmul+0)+0+3
  5448  01E9  01FC               	movf	0+(??___flmul+0)+0,w
  5449  01EA  0879               	addwf	(___flmul@grs),f
  5450  01EB  07A9               	movf	1+(??___flmul+0)+0,w
  5451  01EC  087A               	clrz
  5452  01ED  1103               	skipnc
  5453  01EE  1803               	addlw	1
  5454  01EF  3E01               	skipnz
  5455  01F0  1903               	goto	u3111
  5456  01F1  29F3               	addwf	(___flmul@grs+1),f
  5457  01F2  07AA               u3111:
  5458  01F3                     	movf	2+(??___flmul+0)+0,w
  5459  01F3  087B               	clrz
  5460  01F4  1103               	skipnc
  5461  01F5  1803               	addlw	1
  5462  01F6  3E01               	skipnz
  5463  01F7  1903               	goto	u3112
  5464  01F8  29FA               	addwf	(___flmul@grs+2),f
  5465  01F9  07AB               u3112:
  5466  01FA                     	movf	3+(??___flmul+0)+0,w
  5467  01FA  087C               	clrz
  5468  01FB  1103               	skipnc
  5469  01FC  1803               	addlw	1
  5470  01FD  3E01               	skipnz
  5471  01FE  1903               	goto	u3113
  5472  01FF  2A01               	addwf	(___flmul@grs+3),f
  5473  0200  07AC               u3113:
  5474  0201                     
  5475                           	line	127
  5476                           	
  5477                           l1965:	
  5478  0201                     	movf	0+(___flmul@temp)+01h,w
  5479  0201  0834               	movwf	(??___flmul+0)+0
  5480  0202  00F9               	clrf	(??___flmul+0)+0+1
  5481  0203  01FA               	clrf	(??___flmul+0)+0+2
  5482  0204  01FB               	clrf	(??___flmul+0)+0+3
  5483  0205  01FC               	movf	0+(??___flmul+0)+0,w
  5484  0206  0879               	addwf	(___flmul@prod),f
  5485  0207  07AF               	movf	1+(??___flmul+0)+0,w
  5486  0208  087A               	clrz
  5487  0209  1103               	skipnc
  5488  020A  1803               	addlw	1
  5489  020B  3E01               	skipnz
  5490  020C  1903               	goto	u3121
  5491  020D  2A0F               	addwf	(___flmul@prod+1),f
  5492  020E  07B0               u3121:
  5493  020F                     	movf	2+(??___flmul+0)+0,w
  5494  020F  087B               	clrz
  5495  0210  1103               	skipnc
  5496  0211  1803               	addlw	1
  5497  0212  3E01               	skipnz
  5498  0213  1903               	goto	u3122
  5499  0214  2A16               	addwf	(___flmul@prod+2),f
  5500  0215  07B1               u3122:
  5501  0216                     	movf	3+(??___flmul+0)+0,w
  5502  0216  087C               	clrz
  5503  0217  1103               	skipnc
  5504  0218  1803               	addlw	1
  5505  0219  3E01               	skipnz
  5506  021A  1903               	goto	u3123
  5507  021B  2A1D               	addwf	(___flmul@prod+3),f
  5508  021C  07B2               u3123:
  5509  021D                     
  5510                           	line	128
  5511                           	
  5512                           l1967:	
  5513  021D                     	movlw	08h
  5514  021D  3008               	movwf	(??___flmul+0)+0
  5515  021E  00F9               u3135:
  5516  021F                     	clrc
  5517  021F  1003               	rlf	(___flmul@grs),f
  5518  0220  0DA9               	rlf	(___flmul@grs+1),f
  5519  0221  0DAA               	rlf	(___flmul@grs+2),f
  5520  0222  0DAB               	rlf	(___flmul@grs+3),f
  5521  0223  0DAC               	decfsz	(??___flmul+0)+0
  5522  0224  0BF9               	goto	u3135
  5523  0225  2A1F               	line	129
  5524                           	
  5525                           l1969:	
  5526  0226                     	movf	0+(___flmul@b)+01h,w
  5527  0226  0821               	movwf	(??___flmul+0)+0
  5528  0227  00F9               	movf	(??___flmul+0)+0,w
  5529  0228  0879               	movwf	(__Umul8_16@multiplicand)
  5530  0229  00F0               	movf	(___flmul@a),w
  5531  022A  0824               	fcall	__Umul8_16
  5532  022B  120A  158A  2044  120A  118A  	movf	(1+(?__Umul8_16)),w
  5533  0230  0871               	bcf	status, 5	;RP0=0, select bank0
  5534  0231  1283               	bcf	status, 6	;RP1=0, select bank0
  5535  0232  1303               	movwf	(___flmul@temp+1)
  5536  0233  00B4               	movf	(0+(?__Umul8_16)),w
  5537  0234  0870               	movwf	(___flmul@temp)
  5538  0235  00B3               	line	130
  5539                           	
  5540                           l1971:	
  5541  0236                     	movf	(___flmul@temp),w
  5542  0236  0833               	movwf	((??___flmul+0)+0)
  5543  0237  00F9               	movf	(___flmul@temp+1),w
  5544  0238  0834               	movwf	((??___flmul+0)+0+1)
  5545  0239  00FA               	clrf	((??___flmul+0)+0+2)
  5546  023A  01FB               	clrf	((??___flmul+0)+0+3)
  5547  023B  01FC               	movf	0+(??___flmul+0)+0,w
  5548  023C  0879               	addwf	(___flmul@grs),f
  5549  023D  07A9               	movf	1+(??___flmul+0)+0,w
  5550  023E  087A               	clrz
  5551  023F  1103               	skipnc
  5552  0240  1803               	addlw	1
  5553  0241  3E01               	skipnz
  5554  0242  1903               	goto	u3141
  5555  0243  2A45               	addwf	(___flmul@grs+1),f
  5556  0244  07AA               u3141:
  5557  0245                     	movf	2+(??___flmul+0)+0,w
  5558  0245  087B               	clrz
  5559  0246  1103               	skipnc
  5560  0247  1803               	addlw	1
  5561  0248  3E01               	skipnz
  5562  0249  1903               	goto	u3142
  5563  024A  2A4C               	addwf	(___flmul@grs+2),f
  5564  024B  07AB               u3142:
  5565  024C                     	movf	3+(??___flmul+0)+0,w
  5566  024C  087C               	clrz
  5567  024D  1103               	skipnc
  5568  024E  1803               	addlw	1
  5569  024F  3E01               	skipnz
  5570  0250  1903               	goto	u3143
  5571  0251  2A53               	addwf	(___flmul@grs+3),f
  5572  0252  07AC               u3143:
  5573  0253                     
  5574                           	line	131
  5575                           	
  5576                           l1973:	
  5577  0253                     	movf	(___flmul@b),w
  5578  0253  0820               	movwf	(??___flmul+0)+0
  5579  0254  00F9               	movf	(??___flmul+0)+0,w
  5580  0255  0879               	movwf	(__Umul8_16@multiplicand)
  5581  0256  00F0               	movf	0+(___flmul@a)+01h,w
  5582  0257  0825               	fcall	__Umul8_16
  5583  0258  120A  158A  2044  120A  118A  	movf	(1+(?__Umul8_16)),w
  5584  025D  0871               	bcf	status, 5	;RP0=0, select bank0
  5585  025E  1283               	bcf	status, 6	;RP1=0, select bank0
  5586  025F  1303               	movwf	(___flmul@temp+1)
  5587  0260  00B4               	movf	(0+(?__Umul8_16)),w
  5588  0261  0870               	movwf	(___flmul@temp)
  5589  0262  00B3               	line	132
  5590                           	
  5591                           l1975:	
  5592  0263                     	movf	(___flmul@temp),w
  5593  0263  0833               	movwf	((??___flmul+0)+0)
  5594  0264  00F9               	movf	(___flmul@temp+1),w
  5595  0265  0834               	movwf	((??___flmul+0)+0+1)
  5596  0266  00FA               	clrf	((??___flmul+0)+0+2)
  5597  0267  01FB               	clrf	((??___flmul+0)+0+3)
  5598  0268  01FC               	movf	0+(??___flmul+0)+0,w
  5599  0269  0879               	addwf	(___flmul@grs),f
  5600  026A  07A9               	movf	1+(??___flmul+0)+0,w
  5601  026B  087A               	clrz
  5602  026C  1103               	skipnc
  5603  026D  1803               	addlw	1
  5604  026E  3E01               	skipnz
  5605  026F  1903               	goto	u3151
  5606  0270  2A72               	addwf	(___flmul@grs+1),f
  5607  0271  07AA               u3151:
  5608  0272                     	movf	2+(??___flmul+0)+0,w
  5609  0272  087B               	clrz
  5610  0273  1103               	skipnc
  5611  0274  1803               	addlw	1
  5612  0275  3E01               	skipnz
  5613  0276  1903               	goto	u3152
  5614  0277  2A79               	addwf	(___flmul@grs+2),f
  5615  0278  07AB               u3152:
  5616  0279                     	movf	3+(??___flmul+0)+0,w
  5617  0279  087C               	clrz
  5618  027A  1103               	skipnc
  5619  027B  1803               	addlw	1
  5620  027C  3E01               	skipnz
  5621  027D  1903               	goto	u3153
  5622  027E  2A80               	addwf	(___flmul@grs+3),f
  5623  027F  07AC               u3153:
  5624  0280                     
  5625                           	line	133
  5626                           	
  5627                           l1977:	
  5628  0280                     	movlw	08h
  5629  0280  3008               	movwf	(??___flmul+0)+0
  5630  0281  00F9               u3165:
  5631  0282                     	clrc
  5632  0282  1003               	rlf	(___flmul@grs),f
  5633  0283  0DA9               	rlf	(___flmul@grs+1),f
  5634  0284  0DAA               	rlf	(___flmul@grs+2),f
  5635  0285  0DAB               	rlf	(___flmul@grs+3),f
  5636  0286  0DAC               	decfsz	(??___flmul+0)+0
  5637  0287  0BF9               	goto	u3165
  5638  0288  2A82               	line	134
  5639                           	movf	(___flmul@b),w
  5640  0289  0820               	movwf	(??___flmul+0)+0
  5641  028A  00F9               	movf	(??___flmul+0)+0,w
  5642  028B  0879               	movwf	(__Umul8_16@multiplicand)
  5643  028C  00F0               	movf	(___flmul@a),w
  5644  028D  0824               	fcall	__Umul8_16
  5645  028E  120A  158A  2044  120A  118A  	movf	(1+(?__Umul8_16)),w
  5646  0293  0871               	bcf	status, 5	;RP0=0, select bank0
  5647  0294  1283               	bcf	status, 6	;RP1=0, select bank0
  5648  0295  1303               	movwf	(___flmul@temp+1)
  5649  0296  00B4               	movf	(0+(?__Umul8_16)),w
  5650  0297  0870               	movwf	(___flmul@temp)
  5651  0298  00B3               	line	135
  5652                           	
  5653                           l1979:	
  5654  0299                     	movf	(___flmul@temp),w
  5655  0299  0833               	movwf	((??___flmul+0)+0)
  5656  029A  00F9               	movf	(___flmul@temp+1),w
  5657  029B  0834               	movwf	((??___flmul+0)+0+1)
  5658  029C  00FA               	clrf	((??___flmul+0)+0+2)
  5659  029D  01FB               	clrf	((??___flmul+0)+0+3)
  5660  029E  01FC               	movf	0+(??___flmul+0)+0,w
  5661  029F  0879               	addwf	(___flmul@grs),f
  5662  02A0  07A9               	movf	1+(??___flmul+0)+0,w
  5663  02A1  087A               	clrz
  5664  02A2  1103               	skipnc
  5665  02A3  1803               	addlw	1
  5666  02A4  3E01               	skipnz
  5667  02A5  1903               	goto	u3171
  5668  02A6  2AA8               	addwf	(___flmul@grs+1),f
  5669  02A7  07AA               u3171:
  5670  02A8                     	movf	2+(??___flmul+0)+0,w
  5671  02A8  087B               	clrz
  5672  02A9  1103               	skipnc
  5673  02AA  1803               	addlw	1
  5674  02AB  3E01               	skipnz
  5675  02AC  1903               	goto	u3172
  5676  02AD  2AAF               	addwf	(___flmul@grs+2),f
  5677  02AE  07AB               u3172:
  5678  02AF                     	movf	3+(??___flmul+0)+0,w
  5679  02AF  087C               	clrz
  5680  02B0  1103               	skipnc
  5681  02B1  1803               	addlw	1
  5682  02B2  3E01               	skipnz
  5683  02B3  1903               	goto	u3173
  5684  02B4  2AB6               	addwf	(___flmul@grs+3),f
  5685  02B5  07AC               u3173:
  5686  02B6                     
  5687                           	line	136
  5688                           	
  5689                           l1981:	
  5690  02B6                     	movf	0+(___flmul@b)+01h,w
  5691  02B6  0821               	movwf	(??___flmul+0)+0
  5692  02B7  00F9               	movf	(??___flmul+0)+0,w
  5693  02B8  0879               	movwf	(__Umul8_16@multiplicand)
  5694  02B9  00F0               	movf	0+(___flmul@a)+02h,w
  5695  02BA  0826               	fcall	__Umul8_16
  5696  02BB  120A  158A  2044  120A  118A  	movf	(1+(?__Umul8_16)),w
  5697  02C0  0871               	bcf	status, 5	;RP0=0, select bank0
  5698  02C1  1283               	bcf	status, 6	;RP1=0, select bank0
  5699  02C2  1303               	movwf	(___flmul@temp+1)
  5700  02C3  00B4               	movf	(0+(?__Umul8_16)),w
  5701  02C4  0870               	movwf	(___flmul@temp)
  5702  02C5  00B3               	line	137
  5703                           	movf	(___flmul@temp),w
  5704  02C6  0833               	movwf	((??___flmul+0)+0)
  5705  02C7  00F9               	movf	(___flmul@temp+1),w
  5706  02C8  0834               	movwf	((??___flmul+0)+0+1)
  5707  02C9  00FA               	clrf	((??___flmul+0)+0+2)
  5708  02CA  01FB               	clrf	((??___flmul+0)+0+3)
  5709  02CB  01FC               	movf	0+(??___flmul+0)+0,w
  5710  02CC  0879               	addwf	(___flmul@prod),f
  5711  02CD  07AF               	movf	1+(??___flmul+0)+0,w
  5712  02CE  087A               	clrz
  5713  02CF  1103               	skipnc
  5714  02D0  1803               	addlw	1
  5715  02D1  3E01               	skipnz
  5716  02D2  1903               	goto	u3181
  5717  02D3  2AD5               	addwf	(___flmul@prod+1),f
  5718  02D4  07B0               u3181:
  5719  02D5                     	movf	2+(??___flmul+0)+0,w
  5720  02D5  087B               	clrz
  5721  02D6  1103               	skipnc
  5722  02D7  1803               	addlw	1
  5723  02D8  3E01               	skipnz
  5724  02D9  1903               	goto	u3182
  5725  02DA  2ADC               	addwf	(___flmul@prod+2),f
  5726  02DB  07B1               u3182:
  5727  02DC                     	movf	3+(??___flmul+0)+0,w
  5728  02DC  087C               	clrz
  5729  02DD  1103               	skipnc
  5730  02DE  1803               	addlw	1
  5731  02DF  3E01               	skipnz
  5732  02E0  1903               	goto	u3183
  5733  02E1  2AE3               	addwf	(___flmul@prod+3),f
  5734  02E2  07B2               u3183:
  5735  02E3                     
  5736                           	line	138
  5737                           	
  5738                           l1983:	
  5739  02E3                     	movf	0+(___flmul@b)+02h,w
  5740  02E3  0822               	movwf	(??___flmul+0)+0
  5741  02E4  00F9               	movf	(??___flmul+0)+0,w
  5742  02E5  0879               	movwf	(__Umul8_16@multiplicand)
  5743  02E6  00F0               	movf	0+(___flmul@a)+01h,w
  5744  02E7  0825               	fcall	__Umul8_16
  5745  02E8  120A  158A  2044  120A  118A  	movf	(1+(?__Umul8_16)),w
  5746  02ED  0871               	bcf	status, 5	;RP0=0, select bank0
  5747  02EE  1283               	bcf	status, 6	;RP1=0, select bank0
  5748  02EF  1303               	movwf	(___flmul@temp+1)
  5749  02F0  00B4               	movf	(0+(?__Umul8_16)),w
  5750  02F1  0870               	movwf	(___flmul@temp)
  5751  02F2  00B3               	line	139
  5752                           	
  5753                           l1985:	
  5754  02F3                     	movf	(___flmul@temp),w
  5755  02F3  0833               	movwf	((??___flmul+0)+0)
  5756  02F4  00F9               	movf	(___flmul@temp+1),w
  5757  02F5  0834               	movwf	((??___flmul+0)+0+1)
  5758  02F6  00FA               	clrf	((??___flmul+0)+0+2)
  5759  02F7  01FB               	clrf	((??___flmul+0)+0+3)
  5760  02F8  01FC               	movf	0+(??___flmul+0)+0,w
  5761  02F9  0879               	addwf	(___flmul@prod),f
  5762  02FA  07AF               	movf	1+(??___flmul+0)+0,w
  5763  02FB  087A               	clrz
  5764  02FC  1103               	skipnc
  5765  02FD  1803               	addlw	1
  5766  02FE  3E01               	skipnz
  5767  02FF  1903               	goto	u3191
  5768  0300  2B02               	addwf	(___flmul@prod+1),f
  5769  0301  07B0               u3191:
  5770  0302                     	movf	2+(??___flmul+0)+0,w
  5771  0302  087B               	clrz
  5772  0303  1103               	skipnc
  5773  0304  1803               	addlw	1
  5774  0305  3E01               	skipnz
  5775  0306  1903               	goto	u3192
  5776  0307  2B09               	addwf	(___flmul@prod+2),f
  5777  0308  07B1               u3192:
  5778  0309                     	movf	3+(??___flmul+0)+0,w
  5779  0309  087C               	clrz
  5780  030A  1103               	skipnc
  5781  030B  1803               	addlw	1
  5782  030C  3E01               	skipnz
  5783  030D  1903               	goto	u3193
  5784  030E  2B10               	addwf	(___flmul@prod+3),f
  5785  030F  07B2               u3193:
  5786  0310                     
  5787                           	line	140
  5788                           	movf	0+(___flmul@b)+02h,w
  5789  0310  0822               	movwf	(??___flmul+0)+0
  5790  0311  00F9               	movf	(??___flmul+0)+0,w
  5791  0312  0879               	movwf	(__Umul8_16@multiplicand)
  5792  0313  00F0               	movf	0+(___flmul@a)+02h,w
  5793  0314  0826               	fcall	__Umul8_16
  5794  0315  120A  158A  2044  120A  118A  	movf	(1+(?__Umul8_16)),w
  5795  031A  0871               	bcf	status, 5	;RP0=0, select bank0
  5796  031B  1283               	bcf	status, 6	;RP1=0, select bank0
  5797  031C  1303               	movwf	(___flmul@temp+1)
  5798  031D  00B4               	movf	(0+(?__Umul8_16)),w
  5799  031E  0870               	movwf	(___flmul@temp)
  5800  031F  00B3               	line	141
  5801                           	
  5802                           l1987:	
  5803  0320                     	movf	(___flmul@temp),w
  5804  0320  0833               	movwf	((??___flmul+0)+0)
  5805  0321  00F9               	movf	(___flmul@temp+1),w
  5806  0322  0834               	movwf	((??___flmul+0)+0+1)
  5807  0323  00FA               	clrf	((??___flmul+0)+0+2)
  5808  0324  01FB               	clrf	((??___flmul+0)+0+3)
  5809  0325  01FC               	movlw	08h
  5810  0326  3008               u3205:
  5811  0327                     	clrc
  5812  0327  1003               	rlf	(??___flmul+0)+0,f
  5813  0328  0DF9               	rlf	(??___flmul+0)+1,f
  5814  0329  0DFA               	rlf	(??___flmul+0)+2,f
  5815  032A  0DFB               	rlf	(??___flmul+0)+3,f
  5816  032B  0DFC               u3200:
  5817  032C                     	addlw	-1
  5818  032C  3EFF               	skipz
  5819  032D  1D03               	goto	u3205
  5820  032E  2B27               	movf	0+(??___flmul+0)+0,w
  5821  032F  0879               	addwf	(___flmul@prod),f
  5822  0330  07AF               	movf	1+(??___flmul+0)+0,w
  5823  0331  087A               	clrz
  5824  0332  1103               	skipnc
  5825  0333  1803               	addlw	1
  5826  0334  3E01               	skipnz
  5827  0335  1903               	goto	u3211
  5828  0336  2B38               	addwf	(___flmul@prod+1),f
  5829  0337  07B0               u3211:
  5830  0338                     	movf	2+(??___flmul+0)+0,w
  5831  0338  087B               	clrz
  5832  0339  1103               	skipnc
  5833  033A  1803               	addlw	1
  5834  033B  3E01               	skipnz
  5835  033C  1903               	goto	u3212
  5836  033D  2B3F               	addwf	(___flmul@prod+2),f
  5837  033E  07B1               u3212:
  5838  033F                     	movf	3+(??___flmul+0)+0,w
  5839  033F  087C               	clrz
  5840  0340  1103               	skipnc
  5841  0341  1803               	addlw	1
  5842  0342  3E01               	skipnz
  5843  0343  1903               	goto	u3213
  5844  0344  2B46               	addwf	(___flmul@prod+3),f
  5845  0345  07B2               u3213:
  5846  0346                     
  5847                           	line	145
  5848                           	
  5849                           l1989:	
  5850  0346                     	movf	(___flmul@grs),w
  5851  0346  0829               	movwf	(??___flmul+0)+0
  5852  0347  00F9               	movf	(___flmul@grs+1),w
  5853  0348  082A               	movwf	((??___flmul+0)+0+1)
  5854  0349  00FA               	movf	(___flmul@grs+2),w
  5855  034A  082B               	movwf	((??___flmul+0)+0+2)
  5856  034B  00FB               	movf	(___flmul@grs+3),w
  5857  034C  082C               	movwf	((??___flmul+0)+0+3)
  5858  034D  00FC               	movlw	018h
  5859  034E  3018               u3225:
  5860  034F                     	clrc
  5861  034F  1003               	rrf	(??___flmul+0)+3,f
  5862  0350  0CFC               	rrf	(??___flmul+0)+2,f
  5863  0351  0CFB               	rrf	(??___flmul+0)+1,f
  5864  0352  0CFA               	rrf	(??___flmul+0)+0,f
  5865  0353  0CF9               u3220:
  5866  0354                     	addlw	-1
  5867  0354  3EFF               	skipz
  5868  0355  1D03               	goto	u3225
  5869  0356  2B4F               	movf	0+(??___flmul+0)+0,w
  5870  0357  0879               	addwf	(___flmul@prod),f
  5871  0358  07AF               	movf	1+(??___flmul+0)+0,w
  5872  0359  087A               	clrz
  5873  035A  1103               	skipnc
  5874  035B  1803               	addlw	1
  5875  035C  3E01               	skipnz
  5876  035D  1903               	goto	u3231
  5877  035E  2B60               	addwf	(___flmul@prod+1),f
  5878  035F  07B0               u3231:
  5879  0360                     	movf	2+(??___flmul+0)+0,w
  5880  0360  087B               	clrz
  5881  0361  1103               	skipnc
  5882  0362  1803               	addlw	1
  5883  0363  3E01               	skipnz
  5884  0364  1903               	goto	u3232
  5885  0365  2B67               	addwf	(___flmul@prod+2),f
  5886  0366  07B1               u3232:
  5887  0367                     	movf	3+(??___flmul+0)+0,w
  5888  0367  087C               	clrz
  5889  0368  1103               	skipnc
  5890  0369  1803               	addlw	1
  5891  036A  3E01               	skipnz
  5892  036B  1903               	goto	u3233
  5893  036C  2B6E               	addwf	(___flmul@prod+3),f
  5894  036D  07B2               u3233:
  5895  036E                     
  5896                           	line	146
  5897                           	
  5898                           l1991:	
  5899  036E                     	movlw	08h
  5900  036E  3008               	movwf	(??___flmul+0)+0
  5901  036F  00F9               u3245:
  5902  0370                     	clrc
  5903  0370  1003               	rlf	(___flmul@grs),f
  5904  0371  0DA9               	rlf	(___flmul@grs+1),f
  5905  0372  0DAA               	rlf	(___flmul@grs+2),f
  5906  0373  0DAB               	rlf	(___flmul@grs+3),f
  5907  0374  0DAC               	decfsz	(??___flmul+0)+0
  5908  0375  0BF9               	goto	u3245
  5909  0376  2B70               	line	149
  5910                           	
  5911                           l1993:	
  5912  0377                     	movf	(___flmul@bexp),w
  5913  0377  082E               	addwf	(___flmul@aexp),w
  5914  0378  072D               	movwf	(??___flmul+0)+0
  5915  0379  00F9               	clrf	(??___flmul+0)+0+1
  5916  037A  01FA               	rlf	1+(??___flmul+0)+0,f
  5917  037B  0DFA               	
  5918                           	movf	0+(??___flmul+0)+0,w
  5919  037C  0879               	addlw	low(-126)
  5920  037D  3E82               	movwf	(___flmul@temp)
  5921  037E  00B3               	movf	1+(??___flmul+0)+0,w
  5922  037F  087A               	skipnc
  5923  0380  1803               	addlw	1
  5924  0381  3E01               	addlw	high(-126)
  5925  0382  3EFF               	movwf	1+(___flmul@temp)
  5926  0383  00B4               	line	152
  5927                           	goto	l2005
  5928  0384  2BA4               	
  5929                           l472:	
  5930  0385                     	line	153
  5931                           	
  5932                           l1995:	
  5933  0385                     	movlw	01h
  5934  0385  3001               	movwf	(??___flmul+0)+0
  5935  0386  00F9               u3255:
  5936  0387                     	clrc
  5937  0387  1003               	rlf	(___flmul@prod),f
  5938  0388  0DAF               	rlf	(___flmul@prod+1),f
  5939  0389  0DB0               	rlf	(___flmul@prod+2),f
  5940  038A  0DB1               	rlf	(___flmul@prod+3),f
  5941  038B  0DB2               	decfsz	(??___flmul+0)+0
  5942  038C  0BF9               	goto	u3255
  5943  038D  2B87               	line	154
  5944                           	
  5945                           l1997:	
  5946  038E                     	btfss	(___flmul@grs+3),(31)&7
  5947  038E  1FAC               	goto	u3261
  5948  038F  2B91               	goto	u3260
  5949  0390  2B92               u3261:
  5950  0391                     	goto	l2001
  5951  0391  2B94               u3260:
  5952  0392                     	line	155
  5953                           	
  5954                           l1999:	
  5955  0392                     	bsf	(___flmul@prod)+(0/8),(0)&7
  5956  0392  142F               	goto	l2001
  5957  0393  2B94               	line	156
  5958                           	
  5959                           l473:	
  5960  0394                     	line	157
  5961                           	
  5962                           l2001:	
  5963  0394                     	movlw	01h
  5964  0394  3001               	movwf	(??___flmul+0)+0
  5965  0395  00F9               u3275:
  5966  0396                     	clrc
  5967  0396  1003               	rlf	(___flmul@grs),f
  5968  0397  0DA9               	rlf	(___flmul@grs+1),f
  5969  0398  0DAA               	rlf	(___flmul@grs+2),f
  5970  0399  0DAB               	rlf	(___flmul@grs+3),f
  5971  039A  0DAC               	decfsz	(??___flmul+0)+0
  5972  039B  0BF9               	goto	u3275
  5973  039C  2B96               	line	158
  5974                           	
  5975                           l2003:	
  5976  039D                     	movlw	0FFh
  5977  039D  30FF               	addwf	(___flmul@temp),f
  5978  039E  07B3               	skipnc
  5979  039F  1803               	incf	(___flmul@temp+1),f
  5980  03A0  0AB4               	movlw	0FFh
  5981  03A1  30FF               	addwf	(___flmul@temp+1),f
  5982  03A2  07B4               	goto	l2005
  5983  03A3  2BA4               	line	159
  5984                           	
  5985                           l471:	
  5986  03A4                     	line	152
  5987                           	
  5988                           l2005:	
  5989  03A4                     	btfss	(___flmul@prod+2),(23)&7
  5990  03A4  1FB1               	goto	u3281
  5991  03A5  2BA7               	goto	u3280
  5992  03A6  2BA8               u3281:
  5993  03A7                     	goto	l1995
  5994  03A7  2B85               u3280:
  5995  03A8                     	goto	l2007
  5996  03A8  2BA9               	
  5997                           l474:	
  5998  03A9                     	line	163
  5999                           	
  6000                           l2007:	
  6001  03A9                     	clrf	(___flmul@aexp)
  6002  03A9  01AD               	line	164
  6003                           	
  6004                           l2009:	
  6005  03AA                     	btfss	(___flmul@grs+3),(31)&7
  6006  03AA  1FAC               	goto	u3291
  6007  03AB  2BAD               	goto	u3290
  6008  03AC  2BAE               u3291:
  6009  03AD                     	goto	l2017
  6010  03AD  2BCE               u3290:
  6011  03AE                     	line	165
  6012                           	
  6013                           l2011:	
  6014  03AE                     	movlw	0FFh
  6015  03AE  30FF               	andwf	(___flmul@grs),w
  6016  03AF  0529               	movwf	(??___flmul+0)+0
  6017  03B0  00F9               	movlw	0FFh
  6018  03B1  30FF               	andwf	(___flmul@grs+1),w
  6019  03B2  052A               	movwf	((??___flmul+0)+0+1)
  6020  03B3  00FA               	movlw	0FFh
  6021  03B4  30FF               	andwf	(___flmul@grs+2),w
  6022  03B5  052B               	movwf	((??___flmul+0)+0+2)
  6023  03B6  00FB               	movlw	07Fh
  6024  03B7  307F               	andwf	(___flmul@grs+3),w
  6025  03B8  052C               	movwf	((??___flmul+0)+0+3)
  6026  03B9  00FC               	movf	3+(??___flmul+0)+0,w
  6027  03BA  087C               	iorwf	2+(??___flmul+0)+0,w
  6028  03BB  047B               	iorwf	1+(??___flmul+0)+0,w
  6029  03BC  047A               	iorwf	0+(??___flmul+0)+0,w
  6030  03BD  0479               	skipnz
  6031  03BE  1903               	goto	u3301
  6032  03BF  2BC1               	goto	u3300
  6033  03C0  2BC2               u3301:
  6034  03C1                     	goto	l476
  6035  03C1  2BC5               u3300:
  6036  03C2                     	line	166
  6037                           	
  6038                           l2013:	
  6039  03C2                     	clrf	(___flmul@aexp)
  6040  03C2  01AD               	incf	(___flmul@aexp),f
  6041  03C3  0AAD               	line	167
  6042                           	goto	l2017
  6043  03C4  2BCE               	line	168
  6044                           	
  6045                           l476:	
  6046  03C5                     	line	169
  6047                           	btfss	(___flmul@prod),(0)&7
  6048  03C5  1C2F               	goto	u3311
  6049  03C6  2BC8               	goto	u3310
  6050  03C7  2BC9               u3311:
  6051  03C8                     	goto	l2017
  6052  03C8  2BCE               u3310:
  6053  03C9                     	line	170
  6054                           	
  6055                           l2015:	
  6056  03C9                     	clrf	(___flmul@aexp)
  6057  03C9  01AD               	incf	(___flmul@aexp),f
  6058  03CA  0AAD               	goto	l2017
  6059  03CB  2BCE               	line	171
  6060                           	
  6061                           l478:	
  6062  03CC                     	goto	l2017
  6063  03CC  2BCE               	line	172
  6064                           	
  6065                           l477:	
  6066  03CD                     	goto	l2017
  6067  03CD  2BCE               	line	173
  6068                           	
  6069                           l475:	
  6070  03CE                     	line	174
  6071                           	
  6072                           l2017:	
  6073  03CE                     	movf	((___flmul@aexp)),w
  6074  03CE  082D               	btfsc	status,2
  6075  03CF  1903               	goto	u3321
  6076  03D0  2BD2               	goto	u3320
  6077  03D1  2BD3               u3321:
  6078  03D2                     	goto	l2027
  6079  03D2  2C06               u3320:
  6080  03D3                     	line	175
  6081                           	
  6082                           l2019:	
  6083  03D3                     	movlw	01h
  6084  03D3  3001               	addwf	(___flmul@prod),f
  6085  03D4  07AF               	movlw	0
  6086  03D5  3000               	skipnc
  6087  03D6  1803               movlw 1
  6088  03D7  3001               	addwf	(___flmul@prod+1),f
  6089  03D8  07B0               	movlw	0
  6090  03D9  3000               	skipnc
  6091  03DA  1803               movlw 1
  6092  03DB  3001               	addwf	(___flmul@prod+2),f
  6093  03DC  07B1               	movlw	0
  6094  03DD  3000               	skipnc
  6095  03DE  1803               movlw 1
  6096  03DF  3001               	addwf	(___flmul@prod+3),f
  6097  03E0  07B2               	line	176
  6098                           	
  6099                           l2021:	
  6100  03E1                     	btfss	(___flmul@prod+3),(24)&7
  6101  03E1  1C32               	goto	u3331
  6102  03E2  2BE4               	goto	u3330
  6103  03E3  2BE5               u3331:
  6104  03E4                     	goto	l2027
  6105  03E4  2C06               u3330:
  6106  03E5                     	line	177
  6107                           	
  6108                           l2023:	
  6109  03E5                     	movf	(___flmul@prod),w
  6110  03E5  082F               	movwf	(??___flmul+0)+0
  6111  03E6  00F9               	movf	(___flmul@prod+1),w
  6112  03E7  0830               	movwf	((??___flmul+0)+0+1)
  6113  03E8  00FA               	movf	(___flmul@prod+2),w
  6114  03E9  0831               	movwf	((??___flmul+0)+0+2)
  6115  03EA  00FB               	movf	(___flmul@prod+3),w
  6116  03EB  0832               	movwf	((??___flmul+0)+0+3)
  6117  03EC  00FC               	movlw	01h
  6118  03ED  3001               	movwf	(??___flmul+4)+0
  6119  03EE  00FD               u3345:
  6120  03EF                     	rlf	(??___flmul+0)+3,w
  6121  03EF  0D7C               	rrf	(??___flmul+0)+3,f
  6122  03F0  0CFC               	rrf	(??___flmul+0)+2,f
  6123  03F1  0CFB               	rrf	(??___flmul+0)+1,f
  6124  03F2  0CFA               	rrf	(??___flmul+0)+0,f
  6125  03F3  0CF9               u3340:
  6126  03F4                     	decfsz	(??___flmul+4)+0,f
  6127  03F4  0BFD               	goto	u3345
  6128  03F5  2BEF               	movf	3+(??___flmul+0)+0,w
  6129  03F6  087C               	movwf	(___flmul@prod+3)
  6130  03F7  00B2               	movf	2+(??___flmul+0)+0,w
  6131  03F8  087B               	movwf	(___flmul@prod+2)
  6132  03F9  00B1               	movf	1+(??___flmul+0)+0,w
  6133  03FA  087A               	movwf	(___flmul@prod+1)
  6134  03FB  00B0               	movf	0+(??___flmul+0)+0,w
  6135  03FC  0879               	movwf	(___flmul@prod)
  6136  03FD  00AF               
  6137                           	line	178
  6138                           	
  6139                           l2025:	
  6140  03FE                     	movlw	01h
  6141  03FE  3001               	addwf	(___flmul@temp),f
  6142  03FF  07B3               	skipnc
  6143  0400  1803               	incf	(___flmul@temp+1),f
  6144  0401  0AB4               	movlw	0
  6145  0402  3000               	addwf	(___flmul@temp+1),f
  6146  0403  07B4               	goto	l2027
  6147  0404  2C06               	line	179
  6148                           	
  6149                           l480:	
  6150  0405                     	goto	l2027
  6151  0405  2C06               	line	180
  6152                           	
  6153                           l479:	
  6154  0406                     	line	183
  6155                           	
  6156                           l2027:	
  6157  0406                     	movf	(___flmul@temp+1),w
  6158  0406  0834               	xorlw	80h
  6159  0407  3A80               	movwf	btemp+1
  6160  0408  00FF               	movlw	(0)^80h
  6161  0409  3080               	subwf	btemp+1,w
  6162  040A  027F               	skipz
  6163  040B  1D03               	goto	u3355
  6164  040C  2C0F               	movlw	0FFh
  6165  040D  30FF               	subwf	(___flmul@temp),w
  6166  040E  0233               u3355:
  6167  040F                     
  6168                           	skipc
  6169  040F  1C03               	goto	u3351
  6170  0410  2C12               	goto	u3350
  6171  0411  2C13               u3351:
  6172  0412                     	goto	l2031
  6173  0412  2C1E               u3350:
  6174  0413                     	line	184
  6175                           	
  6176                           l2029:	
  6177  0413                     	movlw	07Fh
  6178  0413  307F               	bcf	status, 5	;RP0=0, select bank0
  6179  0414  1283               	bcf	status, 6	;RP1=0, select bank0
  6180  0415  1303               	movwf	(___flmul@prod+3)
  6181  0416  00B2               	movlw	080h
  6182  0417  3080               	movwf	(___flmul@prod+2)
  6183  0418  00B1               	movlw	0
  6184  0419  3000               	movwf	(___flmul@prod+1)
  6185  041A  00B0               	movlw	0
  6186  041B  3000               	movwf	(___flmul@prod)
  6187  041C  00AF               
  6188                           	line	185
  6189                           	goto	l482
  6190  041D  2C55               	line	187
  6191                           	
  6192                           l481:	
  6193  041E                     	
  6194                           l2031:	
  6195  041E                     	bcf	status, 5	;RP0=0, select bank0
  6196  041E  1283               	bcf	status, 6	;RP1=0, select bank0
  6197  041F  1303               	movf	(___flmul@temp+1),w
  6198  0420  0834               	xorlw	80h
  6199  0421  3A80               	movwf	btemp+1
  6200  0422  00FF               	movlw	(0)^80h
  6201  0423  3080               	subwf	btemp+1,w
  6202  0424  027F               	skipz
  6203  0425  1D03               	goto	u3365
  6204  0426  2C29               	movlw	01h
  6205  0427  3001               	subwf	(___flmul@temp),w
  6206  0428  0233               u3365:
  6207  0429                     
  6208                           	skipnc
  6209  0429  1803               	goto	u3361
  6210  042A  2C2C               	goto	u3360
  6211  042B  2C2D               u3361:
  6212  042C                     	goto	l2037
  6213  042C  2C39               u3360:
  6214  042D                     	line	188
  6215                           	
  6216                           l2033:	
  6217  042D                     	movlw	high highword(0)
  6218  042D  3000               	bcf	status, 5	;RP0=0, select bank0
  6219  042E  1283               	bcf	status, 6	;RP1=0, select bank0
  6220  042F  1303               	movwf	(___flmul@prod+3)
  6221  0430  00B2               	movlw	low highword(0)
  6222  0431  3000               	movwf	(___flmul@prod+2)
  6223  0432  00B1               	movlw	high(0)
  6224  0433  3000               	movwf	(___flmul@prod+1)
  6225  0434  00B0               	movlw	low(0)
  6226  0435  3000               	movwf	(___flmul@prod)
  6227  0436  00AF               
  6228                           	line	190
  6229                           	
  6230                           l2035:	
  6231  0437                     	clrf	(___flmul@sign)
  6232  0437  01A8               	line	191
  6233                           	goto	l482
  6234  0438  2C55               	line	192
  6235                           	
  6236                           l483:	
  6237  0439                     	line	194
  6238                           	
  6239                           l2037:	
  6240  0439                     	bcf	status, 5	;RP0=0, select bank0
  6241  0439  1283               	bcf	status, 6	;RP1=0, select bank0
  6242  043A  1303               	movf	(___flmul@temp),w
  6243  043B  0833               	movwf	(??___flmul+0)+0
  6244  043C  00F9               	movf	(??___flmul+0)+0,w
  6245  043D  0879               	movwf	(___flmul@bexp)
  6246  043E  00AE               	line	195
  6247                           	movlw	0FFh
  6248  043F  30FF               	andwf	(___flmul@prod),f
  6249  0440  05AF               	movlw	0FFh
  6250  0441  30FF               	andwf	(___flmul@prod+1),f
  6251  0442  05B0               	movlw	07Fh
  6252  0443  307F               	andwf	(___flmul@prod+2),f
  6253  0444  05B1               	movlw	0
  6254  0445  3000               	andwf	(___flmul@prod+3),f
  6255  0446  05B2               	line	196
  6256                           	
  6257                           l2039:	
  6258  0447                     	btfss	(___flmul@bexp),(0)&7
  6259  0447  1C2E               	goto	u3371
  6260  0448  2C4A               	goto	u3370
  6261  0449  2C4B               u3371:
  6262  044A                     	goto	l2043
  6263  044A  2C4D               u3370:
  6264  044B                     	line	197
  6265                           	
  6266                           l2041:	
  6267  044B                     	bsf	0+(___flmul@prod)+02h+(7/8),(7)&7
  6268  044B  17B1               	goto	l2043
  6269  044C  2C4D               	line	198
  6270                           	
  6271                           l485:	
  6272  044D                     	line	199
  6273                           	
  6274                           l2043:	
  6275  044D                     	movf	(___flmul@bexp),w
  6276  044D  082E               	movwf	(??___flmul+0)+0
  6277  044E  00F9               	clrc
  6278  044F  1003               	rrf	(??___flmul+0)+0,w
  6279  0450  0C79               	movwf	(??___flmul+1)+0
  6280  0451  00FA               	movf	(??___flmul+1)+0,w
  6281  0452  087A               	movwf	0+(___flmul@prod)+03h
  6282  0453  00B2               	goto	l482
  6283  0454  2C55               	line	200
  6284                           	
  6285                           l484:	
  6286  0455                     	
  6287                           l482:	
  6288  0455                     	line	201
  6289                           	movf	(___flmul@sign),w
  6290  0455  0828               	movwf	(??___flmul+0)+0
  6291  0456  00F9               	movf	(??___flmul+0)+0,w
  6292  0457  0879               	iorwf	0+(___flmul@prod)+03h,f
  6293  0458  04B2               	line	203
  6294                           	
  6295                           l2045:	
  6296  0459                     	movf	(___flmul@prod+3),w
  6297  0459  0832               	movwf	(?___flmul+3)
  6298  045A  00A3               	movf	(___flmul@prod+2),w
  6299  045B  0831               	movwf	(?___flmul+2)
  6300  045C  00A2               	movf	(___flmul@prod+1),w
  6301  045D  0830               	movwf	(?___flmul+1)
  6302  045E  00A1               	movf	(___flmul@prod),w
  6303  045F  082F               	movwf	(?___flmul)
  6304  0460  00A0               
  6305                           	goto	l470
  6306  0461  2C62               	
  6307                           l2047:	
  6308  0462                     	line	205
  6309                           	
  6310                           l470:	
  6311  0462                     	return
  6312  0462  0008               	opt stack 0
  6313                           GLOBAL	__end_of___flmul
  6314                           	__end_of___flmul:
  6315  0463                     	signat	___flmul,8316
  6316                           	global	__Umul8_16
  6317                           
  6318 ;; *************** function __Umul8_16 *****************
  6319 ;; Defined at:
  6320 ;;		line 4 in file "C:\Program Files (x86)\Microchip\xc8\v1.45\sources\common\Umul8_16.c"
  6321 ;; Parameters:    Size  Location     Type
  6322 ;;  multiplier      1    wreg     unsigned char 
  6323 ;;  multiplicand    1    0[COMMON] unsigned char 
  6324 ;; Auto vars:     Size  Location     Type
  6325 ;;  multiplier      1    8[COMMON] unsigned char 
  6326 ;;  word_mpld       2    6[COMMON] unsigned int 
  6327 ;;  product         2    4[COMMON] unsigned int 
  6328 ;; Return value:  Size  Location     Type
  6329 ;;                  2    0[COMMON] unsigned int 
  6330 ;; Registers used:
  6331 ;;		wreg, status,2, status,0
  6332 ;; Tracked objects:
  6333 ;;		On entry : 0/0
  6334 ;;		On exit  : 0/0
  6335 ;;		Unchanged: 0/0
  6336 ;; Data sizes:     COMMON   BANK0   BANK1   BANK3   BANK2
  6337 ;;      Params:         2       0       0       0       0
  6338 ;;      Locals:         5       0       0       0       0
  6339 ;;      Temps:          2       0       0       0       0
  6340 ;;      Totals:         9       0       0       0       0
  6341 ;;Total ram usage:        9 bytes
  6342 ;; Hardware stack levels used:    1
  6343 ;; This function calls:
  6344 ;;		Nothing
  6345 ;; This function is called by:
  6346 ;;		___flmul
  6347 ;; This function uses a non-reentrant model
  6348 ;;
  6349                           psect	text12,local,class=CODE,delta=2,merge=1,group=2
  6350                           	file	"C:\Program Files (x86)\Microchip\xc8\v1.45\sources\common\Umul8_16.c"
  6351                           	line	4
  6352                           global __ptext12
  6353                           __ptext12:	;psect for function __Umul8_16
  6354  0844                     psect	text12
  6355                           	file	"C:\Program Files (x86)\Microchip\xc8\v1.45\sources\common\Umul8_16.c"
  6356                           	line	4
  6357                           	global	__size_of__Umul8_16
  6358                           	__size_of__Umul8_16	equ	__end_of__Umul8_16-__Umul8_16
  6359  002A                     	
  6360                           __Umul8_16:	
  6361  0844                     ;incstack = 0
  6362                           	opt	stack 6
  6363                           ; Regs used in __Umul8_16: [wreg+status,2+status,0]
  6364                           ;__Umul8_16@multiplier stored from wreg
  6365                           	movwf	(__Umul8_16@multiplier)
  6366  0844  00F8               	line	5
  6367                           	
  6368                           l1661:	
  6369  0845                     	clrf	(__Umul8_16@product)
  6370  0845  01F4               	clrf	(__Umul8_16@product+1)
  6371  0846  01F5               	line	6
  6372                           	
  6373                           l1663:	
  6374  0847                     	movf	(__Umul8_16@multiplicand),w
  6375  0847  0870               	movwf	(??__Umul8_16+0)+0
  6376  0848  00F2               	clrf	(??__Umul8_16+0)+0+1
  6377  0849  01F3               	movf	0+(??__Umul8_16+0)+0,w
  6378  084A  0872               	movwf	(__Umul8_16@word_mpld)
  6379  084B  00F6               	movf	1+(??__Umul8_16+0)+0,w
  6380  084C  0873               	movwf	(__Umul8_16@word_mpld+1)
  6381  084D  00F7               	goto	l1665
  6382  084E  284F               	line	50
  6383                           	
  6384                           l514:	
  6385  084F                     	line	51
  6386                           	
  6387                           l1665:	
  6388  084F                     	btfss	(__Umul8_16@multiplier),(0)&7
  6389  084F  1C78               	goto	u2451
  6390  0850  2852               	goto	u2450
  6391  0851  2853               u2451:
  6392  0852                     	goto	l515
  6393  0852  2859               u2450:
  6394  0853                     	line	52
  6395                           	
  6396                           l1667:	
  6397  0853                     	movf	(__Umul8_16@word_mpld),w
  6398  0853  0876               	addwf	(__Umul8_16@product),f
  6399  0854  07F4               	skipnc
  6400  0855  1803               	incf	(__Umul8_16@product+1),f
  6401  0856  0AF5               	movf	(__Umul8_16@word_mpld+1),w
  6402  0857  0877               	addwf	(__Umul8_16@product+1),f
  6403  0858  07F5               	line	53
  6404                           	
  6405                           l515:	
  6406  0859                     	line	54
  6407                           	movlw	01h
  6408  0859  3001               	
  6409                           u2465:
  6410  085A                     	clrc
  6411  085A  1003               	rlf	(__Umul8_16@word_mpld),f
  6412  085B  0DF6               	rlf	(__Umul8_16@word_mpld+1),f
  6413  085C  0DF7               	addlw	-1
  6414  085D  3EFF               	skipz
  6415  085E  1D03               	goto	u2465
  6416  085F  285A               	line	55
  6417                           	clrc
  6418  0860  1003               	rrf	(__Umul8_16@multiplier),f
  6419  0861  0CF8               
  6420                           	line	56
  6421                           	
  6422                           l1669:	
  6423  0862                     	movf	((__Umul8_16@multiplier)),w
  6424  0862  0878               	btfss	status,2
  6425  0863  1D03               	goto	u2471
  6426  0864  2866               	goto	u2470
  6427  0865  2867               u2471:
  6428  0866                     	goto	l1665
  6429  0866  284F               u2470:
  6430  0867                     	goto	l1671
  6431  0867  2868               	
  6432                           l516:	
  6433  0868                     	line	59
  6434                           	
  6435                           l1671:	
  6436  0868                     	movf	(__Umul8_16@product+1),w
  6437  0868  0875               	movwf	(?__Umul8_16+1)
  6438  0869  00F1               	movf	(__Umul8_16@product),w
  6439  086A  0874               	movwf	(?__Umul8_16)
  6440  086B  00F0               	goto	l517
  6441  086C  286D               	
  6442                           l1673:	
  6443  086D                     	line	60
  6444                           	
  6445                           l517:	
  6446  086D                     	return
  6447  086D  0008               	opt stack 0
  6448                           GLOBAL	__end_of__Umul8_16
  6449                           	__end_of__Umul8_16:
  6450  086E                     	signat	__Umul8_16,8314
  6451                           	global	___flge
  6452                           
  6453 ;; *************** function ___flge *****************
  6454 ;; Defined at:
  6455 ;;		line 4 in file "C:\Program Files (x86)\Microchip\xc8\v1.45\sources\common\flge.c"
  6456 ;; Parameters:    Size  Location     Type
  6457 ;;  ff1             4    0[COMMON] unsigned int 
  6458 ;;  ff2             4    4[COMMON] unsigned int 
  6459 ;; Auto vars:     Size  Location     Type
  6460 ;;		None
  6461 ;; Return value:  Size  Location     Type
  6462 ;;		None               void
  6463 ;; Registers used:
  6464 ;;		wreg, status,2, status,0
  6465 ;; Tracked objects:
  6466 ;;		On entry : 0/0
  6467 ;;		On exit  : 0/0
  6468 ;;		Unchanged: 0/0
  6469 ;; Data sizes:     COMMON   BANK0   BANK1   BANK3   BANK2
  6470 ;;      Params:         8       0       0       0       0
  6471 ;;      Locals:         0       0       0       0       0
  6472 ;;      Temps:          0       8       0       0       0
  6473 ;;      Totals:         8       8       0       0       0
  6474 ;;Total ram usage:       16 bytes
  6475 ;; Hardware stack levels used:    1
  6476 ;; This function calls:
  6477 ;;		Nothing
  6478 ;; This function is called by:
  6479 ;;		_main
  6480 ;; This function uses a non-reentrant model
  6481 ;;
  6482                           psect	text13,local,class=CODE,delta=2,merge=1,group=2
  6483                           	file	"C:\Program Files (x86)\Microchip\xc8\v1.45\sources\common\flge.c"
  6484                           	line	4
  6485                           global __ptext13
  6486                           __ptext13:	;psect for function ___flge
  6487  0AC6                     psect	text13
  6488                           	file	"C:\Program Files (x86)\Microchip\xc8\v1.45\sources\common\flge.c"
  6489                           	line	4
  6490                           	global	__size_of___flge
  6491                           	__size_of___flge	equ	__end_of___flge-___flge
  6492  00C3                     	
  6493                           ___flge:	
  6494  0AC6                     ;incstack = 0
  6495                           	opt	stack 7
  6496                           ; Regs used in ___flge: [wreg+status,2+status,0]
  6497                           	line	7
  6498                           	
  6499                           l1697:	
  6500  0AC6                     	movlw	0
  6501  0AC6  3000               	andwf	(___flge@ff1),w
  6502  0AC7  0570               	bcf	status, 5	;RP0=0, select bank0
  6503  0AC8  1283               	bcf	status, 6	;RP1=0, select bank0
  6504  0AC9  1303               	movwf	(??___flge+0)+0
  6505  0ACA  00A0               	movlw	0
  6506  0ACB  3000               	andwf	(___flge@ff1+1),w
  6507  0ACC  0571               	movwf	((??___flge+0)+0+1)
  6508  0ACD  00A1               	movlw	080h
  6509  0ACE  3080               	andwf	(___flge@ff1+2),w
  6510  0ACF  0572               	movwf	((??___flge+0)+0+2)
  6511  0AD0  00A2               	movlw	07Fh
  6512  0AD1  307F               	andwf	(___flge@ff1+3),w
  6513  0AD2  0573               	movwf	((??___flge+0)+0+3)
  6514  0AD3  00A3               	movf	3+(??___flge+0)+0,w
  6515  0AD4  0823               	iorwf	2+(??___flge+0)+0,w
  6516  0AD5  0422               	iorwf	1+(??___flge+0)+0,w
  6517  0AD6  0421               	iorwf	0+(??___flge+0)+0,w
  6518  0AD7  0420               	skipz
  6519  0AD8  1D03               	goto	u2521
  6520  0AD9  2ADB               	goto	u2520
  6521  0ADA  2ADC               u2521:
  6522  0ADB                     	goto	l260
  6523  0ADB  2AE4               u2520:
  6524  0ADC                     	line	8
  6525                           	
  6526                           l1699:	
  6527  0ADC                     	movlw	high highword(0)
  6528  0ADC  3000               	movwf	(___flge@ff1+3)
  6529  0ADD  00F3               	movlw	low highword(0)
  6530  0ADE  3000               	movwf	(___flge@ff1+2)
  6531  0ADF  00F2               	movlw	high(0)
  6532  0AE0  3000               	movwf	(___flge@ff1+1)
  6533  0AE1  00F1               	movlw	low(0)
  6534  0AE2  3000               	movwf	(___flge@ff1)
  6535  0AE3  00F0               
  6536                           	
  6537                           l260:	
  6538  0AE4                     	line	9
  6539                           	movlw	0
  6540  0AE4  3000               	andwf	(___flge@ff2),w
  6541  0AE5  0574               	movwf	(??___flge+0)+0
  6542  0AE6  00A0               	movlw	0
  6543  0AE7  3000               	andwf	(___flge@ff2+1),w
  6544  0AE8  0575               	movwf	((??___flge+0)+0+1)
  6545  0AE9  00A1               	movlw	080h
  6546  0AEA  3080               	andwf	(___flge@ff2+2),w
  6547  0AEB  0576               	movwf	((??___flge+0)+0+2)
  6548  0AEC  00A2               	movlw	07Fh
  6549  0AED  307F               	andwf	(___flge@ff2+3),w
  6550  0AEE  0577               	movwf	((??___flge+0)+0+3)
  6551  0AEF  00A3               	movf	3+(??___flge+0)+0,w
  6552  0AF0  0823               	iorwf	2+(??___flge+0)+0,w
  6553  0AF1  0422               	iorwf	1+(??___flge+0)+0,w
  6554  0AF2  0421               	iorwf	0+(??___flge+0)+0,w
  6555  0AF3  0420               	skipz
  6556  0AF4  1D03               	goto	u2531
  6557  0AF5  2AF7               	goto	u2530
  6558  0AF6  2AF8               u2531:
  6559  0AF7                     	goto	l1703
  6560  0AF7  2B01               u2530:
  6561  0AF8                     	line	10
  6562                           	
  6563                           l1701:	
  6564  0AF8                     	movlw	high highword(0)
  6565  0AF8  3000               	movwf	(___flge@ff2+3)
  6566  0AF9  00F7               	movlw	low highword(0)
  6567  0AFA  3000               	movwf	(___flge@ff2+2)
  6568  0AFB  00F6               	movlw	high(0)
  6569  0AFC  3000               	movwf	(___flge@ff2+1)
  6570  0AFD  00F5               	movlw	low(0)
  6571  0AFE  3000               	movwf	(___flge@ff2)
  6572  0AFF  00F4               
  6573                           	goto	l1703
  6574  0B00  2B01               	
  6575                           l261:	
  6576  0B01                     	line	12
  6577                           	
  6578                           l1703:	
  6579  0B01                     	btfss	(___flge@ff1+3),(31)&7
  6580  0B01  1FF3               	goto	u2541
  6581  0B02  2B04               	goto	u2540
  6582  0B03  2B05               u2541:
  6583  0B04                     	goto	l1707
  6584  0B04  2B37               u2540:
  6585  0B05                     	line	13
  6586                           	
  6587                           l1705:	
  6588  0B05                     	movlw	0
  6589  0B05  3000               	movwf	((??___flge+0)+0)
  6590  0B06  00A0               	movlw	0
  6591  0B07  3000               	movwf	((??___flge+0)+0+1)
  6592  0B08  00A1               	movlw	0
  6593  0B09  3000               	movwf	((??___flge+0)+0+2)
  6594  0B0A  00A2               	movlw	080h
  6595  0B0B  3080               	movwf	((??___flge+0)+0+3)
  6596  0B0C  00A3               	comf	(___flge@ff1),w
  6597  0B0D  0970               	movwf	(??___flge+4)+0
  6598  0B0E  00A4               	comf	(___flge@ff1+1),w
  6599  0B0F  0971               	movwf	((??___flge+4)+0+1)
  6600  0B10  00A5               	comf	(___flge@ff1+2),w
  6601  0B11  0972               	movwf	((??___flge+4)+0+2)
  6602  0B12  00A6               	comf	(___flge@ff1+3),w
  6603  0B13  0973               	movwf	((??___flge+4)+0+3)
  6604  0B14  00A7               	incf	(??___flge+4)+0,f
  6605  0B15  0AA4               	skipnz
  6606  0B16  1903               	incf	((??___flge+4)+0+1),f
  6607  0B17  0AA5               	skipnz
  6608  0B18  1903               	incf	((??___flge+4)+0+2),f
  6609  0B19  0AA6               	skipnz
  6610  0B1A  1903               	incf	((??___flge+4)+0+3),f
  6611  0B1B  0AA7               	movf	0+(??___flge+4)+0,w
  6612  0B1C  0824               	addwf	(??___flge+0)+0,f
  6613  0B1D  07A0               	movf	1+(??___flge+4)+0,w
  6614  0B1E  0825               	skipnc
  6615  0B1F  1803               	incfsz	1+(??___flge+4)+0,w
  6616  0B20  0F25               	goto	u2550
  6617  0B21  2B23               	goto	u2551
  6618  0B22  2B24               u2550:
  6619  0B23                     	addwf	(??___flge+0)+1,f
  6620  0B23  07A1               u2551:
  6621  0B24                     	movf	2+(??___flge+4)+0,w
  6622  0B24  0826               	skipnc
  6623  0B25  1803               	incfsz	2+(??___flge+4)+0,w
  6624  0B26  0F26               	goto	u2552
  6625  0B27  2B29               	goto	u2553
  6626  0B28  2B2A               u2552:
  6627  0B29                     	addwf	(??___flge+0)+2,f
  6628  0B29  07A2               u2553:
  6629  0B2A                     	movf	3+(??___flge+4)+0,w
  6630  0B2A  0827               	skipnc
  6631  0B2B  1803               	incf	3+(??___flge+4)+0,w
  6632  0B2C  0A27               	addwf	(??___flge+0)+3,f
  6633  0B2D  07A3               	movf	3+(??___flge+0)+0,w
  6634  0B2E  0823               	movwf	(___flge@ff1+3)
  6635  0B2F  00F3               	movf	2+(??___flge+0)+0,w
  6636  0B30  0822               	movwf	(___flge@ff1+2)
  6637  0B31  00F2               	movf	1+(??___flge+0)+0,w
  6638  0B32  0821               	movwf	(___flge@ff1+1)
  6639  0B33  00F1               	movf	0+(??___flge+0)+0,w
  6640  0B34  0820               	movwf	(___flge@ff1)
  6641  0B35  00F0               
  6642                           	goto	l1707
  6643  0B36  2B37               	
  6644                           l262:	
  6645  0B37                     	line	14
  6646                           	
  6647                           l1707:	
  6648  0B37                     	btfss	(___flge@ff2+3),(31)&7
  6649  0B37  1FF7               	goto	u2561
  6650  0B38  2B3A               	goto	u2560
  6651  0B39  2B3B               u2561:
  6652  0B3A                     	goto	l1711
  6653  0B3A  2B6D               u2560:
  6654  0B3B                     	line	15
  6655                           	
  6656                           l1709:	
  6657  0B3B                     	movlw	0
  6658  0B3B  3000               	movwf	((??___flge+0)+0)
  6659  0B3C  00A0               	movlw	0
  6660  0B3D  3000               	movwf	((??___flge+0)+0+1)
  6661  0B3E  00A1               	movlw	0
  6662  0B3F  3000               	movwf	((??___flge+0)+0+2)
  6663  0B40  00A2               	movlw	080h
  6664  0B41  3080               	movwf	((??___flge+0)+0+3)
  6665  0B42  00A3               	comf	(___flge@ff2),w
  6666  0B43  0974               	movwf	(??___flge+4)+0
  6667  0B44  00A4               	comf	(___flge@ff2+1),w
  6668  0B45  0975               	movwf	((??___flge+4)+0+1)
  6669  0B46  00A5               	comf	(___flge@ff2+2),w
  6670  0B47  0976               	movwf	((??___flge+4)+0+2)
  6671  0B48  00A6               	comf	(___flge@ff2+3),w
  6672  0B49  0977               	movwf	((??___flge+4)+0+3)
  6673  0B4A  00A7               	incf	(??___flge+4)+0,f
  6674  0B4B  0AA4               	skipnz
  6675  0B4C  1903               	incf	((??___flge+4)+0+1),f
  6676  0B4D  0AA5               	skipnz
  6677  0B4E  1903               	incf	((??___flge+4)+0+2),f
  6678  0B4F  0AA6               	skipnz
  6679  0B50  1903               	incf	((??___flge+4)+0+3),f
  6680  0B51  0AA7               	movf	0+(??___flge+4)+0,w
  6681  0B52  0824               	addwf	(??___flge+0)+0,f
  6682  0B53  07A0               	movf	1+(??___flge+4)+0,w
  6683  0B54  0825               	skipnc
  6684  0B55  1803               	incfsz	1+(??___flge+4)+0,w
  6685  0B56  0F25               	goto	u2570
  6686  0B57  2B59               	goto	u2571
  6687  0B58  2B5A               u2570:
  6688  0B59                     	addwf	(??___flge+0)+1,f
  6689  0B59  07A1               u2571:
  6690  0B5A                     	movf	2+(??___flge+4)+0,w
  6691  0B5A  0826               	skipnc
  6692  0B5B  1803               	incfsz	2+(??___flge+4)+0,w
  6693  0B5C  0F26               	goto	u2572
  6694  0B5D  2B5F               	goto	u2573
  6695  0B5E  2B60               u2572:
  6696  0B5F                     	addwf	(??___flge+0)+2,f
  6697  0B5F  07A2               u2573:
  6698  0B60                     	movf	3+(??___flge+4)+0,w
  6699  0B60  0827               	skipnc
  6700  0B61  1803               	incf	3+(??___flge+4)+0,w
  6701  0B62  0A27               	addwf	(??___flge+0)+3,f
  6702  0B63  07A3               	movf	3+(??___flge+0)+0,w
  6703  0B64  0823               	movwf	(___flge@ff2+3)
  6704  0B65  00F7               	movf	2+(??___flge+0)+0,w
  6705  0B66  0822               	movwf	(___flge@ff2+2)
  6706  0B67  00F6               	movf	1+(??___flge+0)+0,w
  6707  0B68  0821               	movwf	(___flge@ff2+1)
  6708  0B69  00F5               	movf	0+(??___flge+0)+0,w
  6709  0B6A  0820               	movwf	(___flge@ff2)
  6710  0B6B  00F4               
  6711                           	goto	l1711
  6712  0B6C  2B6D               	
  6713                           l263:	
  6714  0B6D                     	line	16
  6715                           	
  6716                           l1711:	
  6717  0B6D                     	movlw	080h
  6718  0B6D  3080               	xorwf	(___flge@ff1+3),f
  6719  0B6E  06F3               	line	17
  6720                           	
  6721                           l1713:	
  6722  0B6F                     	movlw	080h
  6723  0B6F  3080               	xorwf	(___flge@ff2+3),f
  6724  0B70  06F7               	line	18
  6725                           	
  6726                           l1715:	
  6727  0B71                     	movf	(___flge@ff2+3),w
  6728  0B71  0877               	subwf	(___flge@ff1+3),w
  6729  0B72  0273               	skipz
  6730  0B73  1D03               	goto	u2585
  6731  0B74  2B7F               	movf	(___flge@ff2+2),w
  6732  0B75  0876               	subwf	(___flge@ff1+2),w
  6733  0B76  0272               	skipz
  6734  0B77  1D03               	goto	u2585
  6735  0B78  2B7F               	movf	(___flge@ff2+1),w
  6736  0B79  0875               	subwf	(___flge@ff1+1),w
  6737  0B7A  0271               	skipz
  6738  0B7B  1D03               	goto	u2585
  6739  0B7C  2B7F               	movf	(___flge@ff2),w
  6740  0B7D  0874               	subwf	(___flge@ff1),w
  6741  0B7E  0270               u2585:
  6742  0B7F                     	skipnc
  6743  0B7F  1803               	goto	u2581
  6744  0B80  2B82               	goto	u2580
  6745  0B81  2B83               u2581:
  6746  0B82                     	goto	l1719
  6747  0B82  2B85               u2580:
  6748  0B83                     	
  6749                           l1717:	
  6750  0B83                     	clrc
  6751  0B83  1003               	
  6752                           	goto	l264
  6753  0B84  2B88               	
  6754                           l1341:	
  6755  0B85                     	
  6756                           l1719:	
  6757  0B85                     	setc
  6758  0B85  1403               	
  6759                           	goto	l264
  6760  0B86  2B88               	
  6761                           l1343:	
  6762  0B87                     	goto	l264
  6763  0B87  2B88               	
  6764                           l1721:	
  6765  0B88                     	line	19
  6766                           	
  6767                           l264:	
  6768  0B88                     	return
  6769  0B88  0008               	opt stack 0
  6770                           GLOBAL	__end_of___flge
  6771                           	__end_of___flge:
  6772  0B89                     	signat	___flge,8312
  6773                           	global	___fldiv
  6774                           
  6775 ;; *************** function ___fldiv *****************
  6776 ;; Defined at:
  6777 ;;		line 8 in file "C:\Program Files (x86)\Microchip\xc8\v1.45\sources\common\sprcdiv.c"
  6778 ;; Parameters:    Size  Location     Type
  6779 ;;  a               4   16[BANK1 ] unsigned int 
  6780 ;;  b               4   20[BANK1 ] unsigned int 
  6781 ;; Auto vars:     Size  Location     Type
  6782 ;;  grs             4   36[BANK1 ] unsigned long 
  6783 ;;  rem             4   30[BANK1 ] unsigned long 
  6784 ;;  new_exp         2   34[BANK1 ] int 
  6785 ;;  aexp            1   41[BANK1 ] unsigned char 
  6786 ;;  bexp            1   40[BANK1 ] unsigned char 
  6787 ;;  sign            1   29[BANK1 ] unsigned char 
  6788 ;; Return value:  Size  Location     Type
  6789 ;;                  4   16[BANK1 ] unsigned char 
  6790 ;; Registers used:
  6791 ;;		wreg, status,2, status,0, btemp+1
  6792 ;; Tracked objects:
  6793 ;;		On entry : 0/0
  6794 ;;		On exit  : 0/0
  6795 ;;		Unchanged: 0/0
  6796 ;; Data sizes:     COMMON   BANK0   BANK1   BANK3   BANK2
  6797 ;;      Params:         0       0       8       0       0
  6798 ;;      Locals:         0       0      13       0       0
  6799 ;;      Temps:          0       0       5       0       0
  6800 ;;      Totals:         0       0      26       0       0
  6801 ;;Total ram usage:       26 bytes
  6802 ;; Hardware stack levels used:    1
  6803 ;; This function calls:
  6804 ;;		Nothing
  6805 ;; This function is called by:
  6806 ;;		_main
  6807 ;; This function uses a non-reentrant model
  6808 ;;
  6809                           psect	text14,local,class=CODE,delta=2,merge=1,group=2
  6810                           	file	"C:\Program Files (x86)\Microchip\xc8\v1.45\sources\common\sprcdiv.c"
  6811                           	line	8
  6812                           global __ptext14
  6813                           __ptext14:	;psect for function ___fldiv
  6814  0B89                     psect	text14
  6815                           	file	"C:\Program Files (x86)\Microchip\xc8\v1.45\sources\common\sprcdiv.c"
  6816                           	line	8
  6817                           	global	__size_of___fldiv
  6818                           	__size_of___fldiv	equ	__end_of___fldiv-___fldiv
  6819  0205                     	
  6820                           ___fldiv:	
  6821  0B89                     ;incstack = 0
  6822                           	opt	stack 7
  6823                           ; Regs used in ___fldiv: [wreg+status,2+status,0+btemp+1]
  6824                           	line	26
  6825                           	
  6826                           l1771:	
  6827  0B89                     	bsf	status, 5	;RP0=1, select bank1
  6828  0B89  1683               	bcf	status, 6	;RP1=0, select bank1
  6829  0B8A  1303               	movf	0+(___fldiv@b)^080h+03h,w
  6830  0B8B  0837               	andlw	080h
  6831  0B8C  3980               	movwf	(??___fldiv+0)^080h+0
  6832  0B8D  00B8               	movf	(??___fldiv+0)^080h+0,w
  6833  0B8E  0838               	movwf	(___fldiv@sign)^080h
  6834  0B8F  00BD               	line	27
  6835                           	
  6836                           l1773:	
  6837  0B90                     	movf	0+(___fldiv@b)^080h+03h,w
  6838  0B90  0837               	movwf	(??___fldiv+0)^080h+0
  6839  0B91  00B8               	addwf	(??___fldiv+0)^080h+0,w
  6840  0B92  0738               	movwf	(??___fldiv+1)^080h+0
  6841  0B93  00B9               	movf	(??___fldiv+1)^080h+0,w
  6842  0B94  0839               	movwf	(___fldiv@bexp)^080h
  6843  0B95  00C8               	line	28
  6844                           	
  6845                           l1775:	
  6846  0B96                     	btfss	0+(___fldiv@b)^080h+02h,(7)&7
  6847  0B96  1FB6               	goto	u2721
  6848  0B97  2B99               	goto	u2720
  6849  0B98  2B9A               u2721:
  6850  0B99                     	goto	l1779
  6851  0B99  2B9C               u2720:
  6852  0B9A                     	line	29
  6853                           	
  6854                           l1777:	
  6855  0B9A                     	bsf	(___fldiv@bexp)^080h+(0/8),(0)&7
  6856  0B9A  1448               	goto	l1779
  6857  0B9B  2B9C               	line	30
  6858                           	
  6859                           l423:	
  6860  0B9C                     	line	33
  6861                           	
  6862                           l1779:	
  6863  0B9C                     	movf	((___fldiv@bexp)^080h),w
  6864  0B9C  0848               	btfsc	status,2
  6865  0B9D  1903               	goto	u2731
  6866  0B9E  2BA0               	goto	u2730
  6867  0B9F  2BA1               u2731:
  6868  0BA0                     	goto	l1789
  6869  0BA0  2BB2               u2730:
  6870  0BA1                     	line	35
  6871                           	
  6872                           l1781:	
  6873  0BA1                     		incf	((___fldiv@bexp)^080h),w
  6874  0BA1  0A48               	btfss	status,2
  6875  0BA2  1D03               	goto	u2741
  6876  0BA3  2BA5               	goto	u2740
  6877  0BA4  2BA6               u2741:
  6878  0BA5                     	goto	l1785
  6879  0BA5  2BAF               u2740:
  6880  0BA6                     	line	37
  6881                           	
  6882                           l1783:	
  6883  0BA6                     	movlw	0x0
  6884  0BA6  3000               	movwf	(___fldiv@b+3)^080h
  6885  0BA7  00B7               	movlw	0x0
  6886  0BA8  3000               	movwf	(___fldiv@b+2)^080h
  6887  0BA9  00B6               	movlw	0x0
  6888  0BAA  3000               	movwf	(___fldiv@b+1)^080h
  6889  0BAB  00B5               	movlw	0x0
  6890  0BAC  3000               	movwf	(___fldiv@b)^080h
  6891  0BAD  00B4               
  6892                           	goto	l1785
  6893  0BAE  2BAF               	line	38
  6894                           	
  6895                           l425:	
  6896  0BAF                     	line	40
  6897                           	
  6898                           l1785:	
  6899  0BAF                     	bsf	(___fldiv@b)^080h+(23/8),(23)&7
  6900  0BAF  17B6               	line	42
  6901                           	
  6902                           l1787:	
  6903  0BB0                     	clrf	0+(___fldiv@b)^080h+03h
  6904  0BB0  01B7               	line	43
  6905                           	goto	l1791
  6906  0BB1  2BBB               	line	44
  6907                           	
  6908                           l424:	
  6909  0BB2                     	line	46
  6910                           	
  6911                           l1789:	
  6912  0BB2                     	movlw	0x0
  6913  0BB2  3000               	movwf	(___fldiv@b+3)^080h
  6914  0BB3  00B7               	movlw	0x0
  6915  0BB4  3000               	movwf	(___fldiv@b+2)^080h
  6916  0BB5  00B6               	movlw	0x0
  6917  0BB6  3000               	movwf	(___fldiv@b+1)^080h
  6918  0BB7  00B5               	movlw	0x0
  6919  0BB8  3000               	movwf	(___fldiv@b)^080h
  6920  0BB9  00B4               
  6921                           	goto	l1791
  6922  0BBA  2BBB               	line	47
  6923                           	
  6924                           l426:	
  6925  0BBB                     	line	49
  6926                           	
  6927                           l1791:	
  6928  0BBB                     	movf	0+(___fldiv@a)^080h+03h,w
  6929  0BBB  0833               	andlw	080h
  6930  0BBC  3980               	movwf	(??___fldiv+0)^080h+0
  6931  0BBD  00B8               	movf	(??___fldiv+0)^080h+0,w
  6932  0BBE  0838               	xorwf	(___fldiv@sign)^080h,f
  6933  0BBF  06BD               	line	50
  6934                           	
  6935                           l1793:	
  6936  0BC0                     	movf	0+(___fldiv@a)^080h+03h,w
  6937  0BC0  0833               	movwf	(??___fldiv+0)^080h+0
  6938  0BC1  00B8               	addwf	(??___fldiv+0)^080h+0,w
  6939  0BC2  0738               	movwf	(??___fldiv+1)^080h+0
  6940  0BC3  00B9               	movf	(??___fldiv+1)^080h+0,w
  6941  0BC4  0839               	movwf	(___fldiv@aexp)^080h
  6942  0BC5  00C9               	line	51
  6943                           	
  6944                           l1795:	
  6945  0BC6                     	btfss	0+(___fldiv@a)^080h+02h,(7)&7
  6946  0BC6  1FB2               	goto	u2751
  6947  0BC7  2BC9               	goto	u2750
  6948  0BC8  2BCA               u2751:
  6949  0BC9                     	goto	l1799
  6950  0BC9  2BCC               u2750:
  6951  0BCA                     	line	52
  6952                           	
  6953                           l1797:	
  6954  0BCA                     	bsf	(___fldiv@aexp)^080h+(0/8),(0)&7
  6955  0BCA  1449               	goto	l1799
  6956  0BCB  2BCC               	line	53
  6957                           	
  6958                           l427:	
  6959  0BCC                     	line	56
  6960                           	
  6961                           l1799:	
  6962  0BCC                     	movf	((___fldiv@aexp)^080h),w
  6963  0BCC  0849               	btfsc	status,2
  6964  0BCD  1903               	goto	u2761
  6965  0BCE  2BD0               	goto	u2760
  6966  0BCF  2BD1               u2761:
  6967  0BD0                     	goto	l1809
  6968  0BD0  2BE2               u2760:
  6969  0BD1                     	line	58
  6970                           	
  6971                           l1801:	
  6972  0BD1                     		incf	((___fldiv@aexp)^080h),w
  6973  0BD1  0A49               	btfss	status,2
  6974  0BD2  1D03               	goto	u2771
  6975  0BD3  2BD5               	goto	u2770
  6976  0BD4  2BD6               u2771:
  6977  0BD5                     	goto	l1805
  6978  0BD5  2BDF               u2770:
  6979  0BD6                     	line	60
  6980                           	
  6981                           l1803:	
  6982  0BD6                     	movlw	0x0
  6983  0BD6  3000               	movwf	(___fldiv@a+3)^080h
  6984  0BD7  00B3               	movlw	0x0
  6985  0BD8  3000               	movwf	(___fldiv@a+2)^080h
  6986  0BD9  00B2               	movlw	0x0
  6987  0BDA  3000               	movwf	(___fldiv@a+1)^080h
  6988  0BDB  00B1               	movlw	0x0
  6989  0BDC  3000               	movwf	(___fldiv@a)^080h
  6990  0BDD  00B0               
  6991                           	goto	l1805
  6992  0BDE  2BDF               	line	61
  6993                           	
  6994                           l429:	
  6995  0BDF                     	line	63
  6996                           	
  6997                           l1805:	
  6998  0BDF                     	bsf	(___fldiv@a)^080h+(23/8),(23)&7
  6999  0BDF  17B2               	line	65
  7000                           	
  7001                           l1807:	
  7002  0BE0                     	clrf	0+(___fldiv@a)^080h+03h
  7003  0BE0  01B3               	line	66
  7004                           	goto	l430
  7005  0BE1  2BEA               	line	67
  7006                           	
  7007                           l428:	
  7008  0BE2                     	line	69
  7009                           	
  7010                           l1809:	
  7011  0BE2                     	movlw	0x0
  7012  0BE2  3000               	movwf	(___fldiv@a+3)^080h
  7013  0BE3  00B3               	movlw	0x0
  7014  0BE4  3000               	movwf	(___fldiv@a+2)^080h
  7015  0BE5  00B2               	movlw	0x0
  7016  0BE6  3000               	movwf	(___fldiv@a+1)^080h
  7017  0BE7  00B1               	movlw	0x0
  7018  0BE8  3000               	movwf	(___fldiv@a)^080h
  7019  0BE9  00B0               
  7020                           	line	70
  7021                           	
  7022                           l430:	
  7023  0BEA                     	line	75
  7024                           	movf	(___fldiv@a+3)^080h,w
  7025  0BEA  0833               	iorwf	(___fldiv@a+2)^080h,w
  7026  0BEB  0432               	iorwf	(___fldiv@a+1)^080h,w
  7027  0BEC  0431               	iorwf	(___fldiv@a)^080h,w
  7028  0BED  0430               	skipz
  7029  0BEE  1D03               	goto	u2781
  7030  0BEF  2BF1               	goto	u2780
  7031  0BF0  2BF2               u2781:
  7032  0BF1                     	goto	l1815
  7033  0BF1  2C08               u2780:
  7034  0BF2                     	line	76
  7035                           	
  7036                           l1811:	
  7037  0BF2                     	movlw	high highword(0)
  7038  0BF2  3000               	movwf	(___fldiv@b+3)^080h
  7039  0BF3  00B7               	movlw	low highword(0)
  7040  0BF4  3000               	movwf	(___fldiv@b+2)^080h
  7041  0BF5  00B6               	movlw	high(0)
  7042  0BF6  3000               	movwf	(___fldiv@b+1)^080h
  7043  0BF7  00B5               	movlw	low(0)
  7044  0BF8  3000               	movwf	(___fldiv@b)^080h
  7045  0BF9  00B4               
  7046                           	line	77
  7047                           	movlw	080h
  7048  0BFA  3080               	iorwf	0+(___fldiv@b)^080h+02h,f
  7049  0BFB  04B6               	movlw	07Fh
  7050  0BFC  307F               	iorwf	1+(___fldiv@b)^080h+02h,f
  7051  0BFD  04B7               	line	78
  7052                           	movf	(___fldiv@b+3)^080h,w
  7053  0BFE  0837               	movwf	(?___fldiv+3)^080h
  7054  0BFF  00B3               	movf	(___fldiv@b+2)^080h,w
  7055  0C00  0836               	movwf	(?___fldiv+2)^080h
  7056  0C01  00B2               	movf	(___fldiv@b+1)^080h,w
  7057  0C02  0835               	movwf	(?___fldiv+1)^080h
  7058  0C03  00B1               	movf	(___fldiv@b)^080h,w
  7059  0C04  0834               	movwf	(?___fldiv)^080h
  7060  0C05  00B0               
  7061                           	goto	l432
  7062  0C06  2D8D               	
  7063                           l1813:	
  7064  0C07                     	goto	l432
  7065  0C07  2D8D               	line	79
  7066                           	
  7067                           l431:	
  7068  0C08                     	line	82
  7069                           	
  7070                           l1815:	
  7071  0C08                     	movf	((___fldiv@bexp)^080h),w
  7072  0C08  0848               	btfss	status,2
  7073  0C09  1D03               	goto	u2791
  7074  0C0A  2C0C               	goto	u2790
  7075  0C0B  2C0D               u2791:
  7076  0C0C                     	goto	l1821
  7077  0C0C  2C1F               u2790:
  7078  0C0D                     	line	83
  7079                           	
  7080                           l1817:	
  7081  0C0D                     	movlw	high highword(0)
  7082  0C0D  3000               	movwf	(___fldiv@b+3)^080h
  7083  0C0E  00B7               	movlw	low highword(0)
  7084  0C0F  3000               	movwf	(___fldiv@b+2)^080h
  7085  0C10  00B6               	movlw	high(0)
  7086  0C11  3000               	movwf	(___fldiv@b+1)^080h
  7087  0C12  00B5               	movlw	low(0)
  7088  0C13  3000               	movwf	(___fldiv@b)^080h
  7089  0C14  00B4               
  7090                           	line	84
  7091                           	movf	(___fldiv@b+3)^080h,w
  7092  0C15  0837               	movwf	(?___fldiv+3)^080h
  7093  0C16  00B3               	movf	(___fldiv@b+2)^080h,w
  7094  0C17  0836               	movwf	(?___fldiv+2)^080h
  7095  0C18  00B2               	movf	(___fldiv@b+1)^080h,w
  7096  0C19  0835               	movwf	(?___fldiv+1)^080h
  7097  0C1A  00B1               	movf	(___fldiv@b)^080h,w
  7098  0C1B  0834               	movwf	(?___fldiv)^080h
  7099  0C1C  00B0               
  7100                           	goto	l432
  7101  0C1D  2D8D               	
  7102                           l1819:	
  7103  0C1E                     	goto	l432
  7104  0C1E  2D8D               	line	85
  7105                           	
  7106                           l433:	
  7107  0C1F                     	line	88
  7108                           	
  7109                           l1821:	
  7110  0C1F                     	movf	(___fldiv@aexp)^080h,w
  7111  0C1F  0849               	movwf	(??___fldiv+0)^080h+0
  7112  0C20  00B8               	clrf	(??___fldiv+0)^080h+0+1
  7113  0C21  01B9               	comf	(??___fldiv+0)^080h+0,f
  7114  0C22  09B8               	comf	(??___fldiv+0)^080h+1,f
  7115  0C23  09B9               	incf	(??___fldiv+0)^080h+0,f
  7116  0C24  0AB8               	skipnz
  7117  0C25  1903               	incf	(??___fldiv+0)^080h+1,f
  7118  0C26  0AB9               	movf	(___fldiv@bexp)^080h,w
  7119  0C27  0848               	addwf	0+(??___fldiv+0)^080h+0,w
  7120  0C28  0738               	movwf	(??___fldiv+2)^080h+0
  7121  0C29  00BA               	movf	1+(??___fldiv+0)^080h+0,w
  7122  0C2A  0839               	skipnc
  7123  0C2B  1803               	incf	1+(??___fldiv+0)^080h+0,w
  7124  0C2C  0A39               	movwf	((??___fldiv+2)^080h+0)+1
  7125  0C2D  00BB               	movf	0+(??___fldiv+2)^080h+0,w
  7126  0C2E  083A               	addlw	low(07Fh)
  7127  0C2F  3E7F               	movwf	(___fldiv@new_exp)^080h
  7128  0C30  00C2               	movf	1+(??___fldiv+2)^080h+0,w
  7129  0C31  083B               	skipnc
  7130  0C32  1803               	addlw	1
  7131  0C33  3E01               	addlw	high(07Fh)
  7132  0C34  3E00               	movwf	1+(___fldiv@new_exp)^080h
  7133  0C35  00C3               	line	91
  7134                           	
  7135                           l1823:	
  7136  0C36                     	movf	(___fldiv@b+3)^080h,w
  7137  0C36  0837               	movwf	(___fldiv@rem+3)^080h
  7138  0C37  00C1               	movf	(___fldiv@b+2)^080h,w
  7139  0C38  0836               	movwf	(___fldiv@rem+2)^080h
  7140  0C39  00C0               	movf	(___fldiv@b+1)^080h,w
  7141  0C3A  0835               	movwf	(___fldiv@rem+1)^080h
  7142  0C3B  00BF               	movf	(___fldiv@b)^080h,w
  7143  0C3C  0834               	movwf	(___fldiv@rem)^080h
  7144  0C3D  00BE               
  7145                           	line	92
  7146                           	
  7147                           l1825:	
  7148  0C3E                     	movlw	high highword(0)
  7149  0C3E  3000               	movwf	(___fldiv@b+3)^080h
  7150  0C3F  00B7               	movlw	low highword(0)
  7151  0C40  3000               	movwf	(___fldiv@b+2)^080h
  7152  0C41  00B6               	movlw	high(0)
  7153  0C42  3000               	movwf	(___fldiv@b+1)^080h
  7154  0C43  00B5               	movlw	low(0)
  7155  0C44  3000               	movwf	(___fldiv@b)^080h
  7156  0C45  00B4               
  7157                           	line	93
  7158                           	
  7159                           l1827:	
  7160  0C46                     	movlw	high highword(0)
  7161  0C46  3000               	movwf	(___fldiv@grs+3)^080h
  7162  0C47  00C7               	movlw	low highword(0)
  7163  0C48  3000               	movwf	(___fldiv@grs+2)^080h
  7164  0C49  00C6               	movlw	high(0)
  7165  0C4A  3000               	movwf	(___fldiv@grs+1)^080h
  7166  0C4B  00C5               	movlw	low(0)
  7167  0C4C  3000               	movwf	(___fldiv@grs)^080h
  7168  0C4D  00C4               
  7169                           	line	95
  7170                           	
  7171                           l1829:	
  7172  0C4E                     	clrf	(___fldiv@aexp)^080h
  7173  0C4E  01C9               	line	96
  7174                           	goto	l1849
  7175  0C4F  2C9E               	
  7176                           l435:	
  7177  0C50                     	line	99
  7178                           	
  7179                           l1831:	
  7180  0C50                     	movf	((___fldiv@aexp)^080h),w
  7181  0C50  0849               	btfsc	status,2
  7182  0C51  1903               	goto	u2801
  7183  0C52  2C54               	goto	u2800
  7184  0C53  2C55               u2801:
  7185  0C54                     	goto	l1841
  7186  0C54  2C77               u2800:
  7187  0C55                     	line	100
  7188                           	
  7189                           l1833:	
  7190  0C55                     	movlw	01h
  7191  0C55  3001               	movwf	(??___fldiv+0)^080h+0
  7192  0C56  00B8               u2815:
  7193  0C57                     	clrc
  7194  0C57  1003               	rlf	(___fldiv@rem)^080h,f
  7195  0C58  0DBE               	rlf	(___fldiv@rem+1)^080h,f
  7196  0C59  0DBF               	rlf	(___fldiv@rem+2)^080h,f
  7197  0C5A  0DC0               	rlf	(___fldiv@rem+3)^080h,f
  7198  0C5B  0DC1               	decfsz	(??___fldiv+0)^080h+0
  7199  0C5C  0BB8               	goto	u2815
  7200  0C5D  2C57               	line	101
  7201                           	movlw	01h
  7202  0C5E  3001               	movwf	(??___fldiv+0)^080h+0
  7203  0C5F  00B8               u2825:
  7204  0C60                     	clrc
  7205  0C60  1003               	rlf	(___fldiv@b)^080h,f
  7206  0C61  0DB4               	rlf	(___fldiv@b+1)^080h,f
  7207  0C62  0DB5               	rlf	(___fldiv@b+2)^080h,f
  7208  0C63  0DB6               	rlf	(___fldiv@b+3)^080h,f
  7209  0C64  0DB7               	decfsz	(??___fldiv+0)^080h+0
  7210  0C65  0BB8               	goto	u2825
  7211  0C66  2C60               	line	102
  7212                           	
  7213                           l1835:	
  7214  0C67                     	btfss	(___fldiv@grs+3)^080h,(31)&7
  7215  0C67  1FC7               	goto	u2831
  7216  0C68  2C6A               	goto	u2830
  7217  0C69  2C6B               u2831:
  7218  0C6A                     	goto	l1839
  7219  0C6A  2C6D               u2830:
  7220  0C6B                     	line	103
  7221                           	
  7222                           l1837:	
  7223  0C6B                     	bsf	(___fldiv@b)^080h+(0/8),(0)&7
  7224  0C6B  1434               	goto	l1839
  7225  0C6C  2C6D               	line	104
  7226                           	
  7227                           l437:	
  7228  0C6D                     	line	105
  7229                           	
  7230                           l1839:	
  7231  0C6D                     	movlw	01h
  7232  0C6D  3001               	movwf	(??___fldiv+0)^080h+0
  7233  0C6E  00B8               u2845:
  7234  0C6F                     	clrc
  7235  0C6F  1003               	rlf	(___fldiv@grs)^080h,f
  7236  0C70  0DC4               	rlf	(___fldiv@grs+1)^080h,f
  7237  0C71  0DC5               	rlf	(___fldiv@grs+2)^080h,f
  7238  0C72  0DC6               	rlf	(___fldiv@grs+3)^080h,f
  7239  0C73  0DC7               	decfsz	(??___fldiv+0)^080h+0
  7240  0C74  0BB8               	goto	u2845
  7241  0C75  2C6F               	goto	l1841
  7242  0C76  2C77               	line	106
  7243                           	
  7244                           l436:	
  7245  0C77                     	line	111
  7246                           	
  7247                           l1841:	
  7248  0C77                     	movf	(___fldiv@a+3)^080h,w
  7249  0C77  0833               	subwf	(___fldiv@rem+3)^080h,w
  7250  0C78  0241               	skipz
  7251  0C79  1D03               	goto	u2855
  7252  0C7A  2C85               	movf	(___fldiv@a+2)^080h,w
  7253  0C7B  0832               	subwf	(___fldiv@rem+2)^080h,w
  7254  0C7C  0240               	skipz
  7255  0C7D  1D03               	goto	u2855
  7256  0C7E  2C85               	movf	(___fldiv@a+1)^080h,w
  7257  0C7F  0831               	subwf	(___fldiv@rem+1)^080h,w
  7258  0C80  023F               	skipz
  7259  0C81  1D03               	goto	u2855
  7260  0C82  2C85               	movf	(___fldiv@a)^080h,w
  7261  0C83  0830               	subwf	(___fldiv@rem)^080h,w
  7262  0C84  023E               u2855:
  7263  0C85                     	skipc
  7264  0C85  1C03               	goto	u2851
  7265  0C86  2C88               	goto	u2850
  7266  0C87  2C89               u2851:
  7267  0C88                     	goto	l1847
  7268  0C88  2C99               u2850:
  7269  0C89                     	line	114
  7270                           	
  7271                           l1843:	
  7272  0C89                     	bsf	(___fldiv@grs)^080h+(30/8),(30)&7
  7273  0C89  1747               	line	115
  7274                           	
  7275                           l1845:	
  7276  0C8A                     	movf	(___fldiv@a)^080h,w
  7277  0C8A  0830               	subwf	(___fldiv@rem)^080h,f
  7278  0C8B  02BE               	movf	(___fldiv@a+1)^080h,w
  7279  0C8C  0831               	skipc
  7280  0C8D  1C03               	incfsz	(___fldiv@a+1)^080h,w
  7281  0C8E  0F31               	subwf	(___fldiv@rem+1)^080h,f
  7282  0C8F  02BF               	movf	(___fldiv@a+2)^080h,w
  7283  0C90  0832               	skipc
  7284  0C91  1C03               	incfsz	(___fldiv@a+2)^080h,w
  7285  0C92  0F32               	subwf	(___fldiv@rem+2)^080h,f
  7286  0C93  02C0               	movf	(___fldiv@a+3)^080h,w
  7287  0C94  0833               	skipc
  7288  0C95  1C03               	incfsz	(___fldiv@a+3)^080h,w
  7289  0C96  0F33               	subwf	(___fldiv@rem+3)^080h,f
  7290  0C97  02C1               	goto	l1847
  7291  0C98  2C99               	line	116
  7292                           	
  7293                           l438:	
  7294  0C99                     	line	117
  7295                           	
  7296                           l1847:	
  7297  0C99                     	movlw	low(01h)
  7298  0C99  3001               	movwf	(??___fldiv+0)^080h+0
  7299  0C9A  00B8               	movf	(??___fldiv+0)^080h+0,w
  7300  0C9B  0838               	addwf	(___fldiv@aexp)^080h,f
  7301  0C9C  07C9               	goto	l1849
  7302  0C9D  2C9E               	line	118
  7303                           	
  7304                           l434:	
  7305  0C9E                     	line	96
  7306                           	
  7307                           l1849:	
  7308  0C9E                     	movlw	low(01Ah)
  7309  0C9E  301A               	subwf	(___fldiv@aexp)^080h,w
  7310  0C9F  0249               	skipc
  7311  0CA0  1C03               	goto	u2861
  7312  0CA1  2CA3               	goto	u2860
  7313  0CA2  2CA4               u2861:
  7314  0CA3                     	goto	l1831
  7315  0CA3  2C50               u2860:
  7316  0CA4                     	goto	l1851
  7317  0CA4  2CA5               	
  7318                           l439:	
  7319  0CA5                     	line	121
  7320                           	
  7321                           l1851:	
  7322  0CA5                     	movf	(___fldiv@rem+3)^080h,w
  7323  0CA5  0841               	iorwf	(___fldiv@rem+2)^080h,w
  7324  0CA6  0440               	iorwf	(___fldiv@rem+1)^080h,w
  7325  0CA7  043F               	iorwf	(___fldiv@rem)^080h,w
  7326  0CA8  043E               	skipnz
  7327  0CA9  1903               	goto	u2871
  7328  0CAA  2CAC               	goto	u2870
  7329  0CAB  2CAD               u2871:
  7330  0CAC                     	goto	l1865
  7331  0CAC  2CCF               u2870:
  7332  0CAD                     	line	122
  7333                           	
  7334                           l1853:	
  7335  0CAD                     	bsf	(___fldiv@grs)^080h+(0/8),(0)&7
  7336  0CAD  1444               	goto	l1865
  7337  0CAE  2CCF               	line	123
  7338                           	
  7339                           l440:	
  7340  0CAF                     	line	126
  7341                           	goto	l1865
  7342  0CAF  2CCF               	
  7343                           l442:	
  7344  0CB0                     	line	127
  7345                           	
  7346                           l1855:	
  7347  0CB0                     	movlw	01h
  7348  0CB0  3001               	movwf	(??___fldiv+0)^080h+0
  7349  0CB1  00B8               u2885:
  7350  0CB2                     	clrc
  7351  0CB2  1003               	rlf	(___fldiv@b)^080h,f
  7352  0CB3  0DB4               	rlf	(___fldiv@b+1)^080h,f
  7353  0CB4  0DB5               	rlf	(___fldiv@b+2)^080h,f
  7354  0CB5  0DB6               	rlf	(___fldiv@b+3)^080h,f
  7355  0CB6  0DB7               	decfsz	(??___fldiv+0)^080h+0
  7356  0CB7  0BB8               	goto	u2885
  7357  0CB8  2CB2               	line	128
  7358                           	
  7359                           l1857:	
  7360  0CB9                     	btfss	(___fldiv@grs+3)^080h,(31)&7
  7361  0CB9  1FC7               	goto	u2891
  7362  0CBA  2CBC               	goto	u2890
  7363  0CBB  2CBD               u2891:
  7364  0CBC                     	goto	l1861
  7365  0CBC  2CBF               u2890:
  7366  0CBD                     	line	129
  7367                           	
  7368                           l1859:	
  7369  0CBD                     	bsf	(___fldiv@b)^080h+(0/8),(0)&7
  7370  0CBD  1434               	goto	l1861
  7371  0CBE  2CBF               	line	130
  7372                           	
  7373                           l443:	
  7374  0CBF                     	line	131
  7375                           	
  7376                           l1861:	
  7377  0CBF                     	movlw	01h
  7378  0CBF  3001               	movwf	(??___fldiv+0)^080h+0
  7379  0CC0  00B8               u2905:
  7380  0CC1                     	clrc
  7381  0CC1  1003               	rlf	(___fldiv@grs)^080h,f
  7382  0CC2  0DC4               	rlf	(___fldiv@grs+1)^080h,f
  7383  0CC3  0DC5               	rlf	(___fldiv@grs+2)^080h,f
  7384  0CC4  0DC6               	rlf	(___fldiv@grs+3)^080h,f
  7385  0CC5  0DC7               	decfsz	(??___fldiv+0)^080h+0
  7386  0CC6  0BB8               	goto	u2905
  7387  0CC7  2CC1               	line	132
  7388                           	
  7389                           l1863:	
  7390  0CC8                     	movlw	0FFh
  7391  0CC8  30FF               	addwf	(___fldiv@new_exp)^080h,f
  7392  0CC9  07C2               	skipnc
  7393  0CCA  1803               	incf	(___fldiv@new_exp+1)^080h,f
  7394  0CCB  0AC3               	movlw	0FFh
  7395  0CCC  30FF               	addwf	(___fldiv@new_exp+1)^080h,f
  7396  0CCD  07C3               	goto	l1865
  7397  0CCE  2CCF               	line	133
  7398                           	
  7399                           l441:	
  7400  0CCF                     	line	126
  7401                           	
  7402                           l1865:	
  7403  0CCF                     	btfss	(___fldiv@b+2)^080h,(23)&7
  7404  0CCF  1FB6               	goto	u2911
  7405  0CD0  2CD2               	goto	u2910
  7406  0CD1  2CD3               u2911:
  7407  0CD2                     	goto	l1855
  7408  0CD2  2CB0               u2910:
  7409  0CD3                     	goto	l1867
  7410  0CD3  2CD4               	
  7411                           l444:	
  7412  0CD4                     	line	138
  7413                           	
  7414                           l1867:	
  7415  0CD4                     	clrf	(___fldiv@aexp)^080h
  7416  0CD4  01C9               	line	139
  7417                           	
  7418                           l1869:	
  7419  0CD5                     	btfss	(___fldiv@grs+3)^080h,(31)&7
  7420  0CD5  1FC7               	goto	u2921
  7421  0CD6  2CD8               	goto	u2920
  7422  0CD7  2CD9               u2921:
  7423  0CD8                     	goto	l1877
  7424  0CD8  2CF9               u2920:
  7425  0CD9                     	line	140
  7426                           	
  7427                           l1871:	
  7428  0CD9                     	movlw	0FFh
  7429  0CD9  30FF               	andwf	(___fldiv@grs)^080h,w
  7430  0CDA  0544               	movwf	(??___fldiv+0)^080h+0
  7431  0CDB  00B8               	movlw	0FFh
  7432  0CDC  30FF               	andwf	(___fldiv@grs+1)^080h,w
  7433  0CDD  0545               	movwf	((??___fldiv+0)^080h+0+1)
  7434  0CDE  00B9               	movlw	0FFh
  7435  0CDF  30FF               	andwf	(___fldiv@grs+2)^080h,w
  7436  0CE0  0546               	movwf	((??___fldiv+0)^080h+0+2)
  7437  0CE1  00BA               	movlw	07Fh
  7438  0CE2  307F               	andwf	(___fldiv@grs+3)^080h,w
  7439  0CE3  0547               	movwf	((??___fldiv+0)^080h+0+3)
  7440  0CE4  00BB               	movf	3+(??___fldiv+0)^080h+0,w
  7441  0CE5  083B               	iorwf	2+(??___fldiv+0)^080h+0,w
  7442  0CE6  043A               	iorwf	1+(??___fldiv+0)^080h+0,w
  7443  0CE7  0439               	iorwf	0+(??___fldiv+0)^080h+0,w
  7444  0CE8  0438               	skipnz
  7445  0CE9  1903               	goto	u2931
  7446  0CEA  2CEC               	goto	u2930
  7447  0CEB  2CED               u2931:
  7448  0CEC                     	goto	l446
  7449  0CEC  2CF0               u2930:
  7450  0CED                     	line	141
  7451                           	
  7452                           l1873:	
  7453  0CED                     	clrf	(___fldiv@aexp)^080h
  7454  0CED  01C9               	incf	(___fldiv@aexp)^080h,f
  7455  0CEE  0AC9               	line	142
  7456                           	goto	l1877
  7457  0CEF  2CF9               	line	143
  7458                           	
  7459                           l446:	
  7460  0CF0                     	line	144
  7461                           	btfss	(___fldiv@b)^080h,(0)&7
  7462  0CF0  1C34               	goto	u2941
  7463  0CF1  2CF3               	goto	u2940
  7464  0CF2  2CF4               u2941:
  7465  0CF3                     	goto	l1877
  7466  0CF3  2CF9               u2940:
  7467  0CF4                     	line	145
  7468                           	
  7469                           l1875:	
  7470  0CF4                     	clrf	(___fldiv@aexp)^080h
  7471  0CF4  01C9               	incf	(___fldiv@aexp)^080h,f
  7472  0CF5  0AC9               	goto	l1877
  7473  0CF6  2CF9               	line	146
  7474                           	
  7475                           l448:	
  7476  0CF7                     	goto	l1877
  7477  0CF7  2CF9               	line	147
  7478                           	
  7479                           l447:	
  7480  0CF8                     	goto	l1877
  7481  0CF8  2CF9               	line	148
  7482                           	
  7483                           l445:	
  7484  0CF9                     	line	149
  7485                           	
  7486                           l1877:	
  7487  0CF9                     	movf	((___fldiv@aexp)^080h),w
  7488  0CF9  0849               	btfsc	status,2
  7489  0CFA  1903               	goto	u2951
  7490  0CFB  2CFD               	goto	u2950
  7491  0CFC  2CFE               u2951:
  7492  0CFD                     	goto	l1887
  7493  0CFD  2D31               u2950:
  7494  0CFE                     	line	150
  7495                           	
  7496                           l1879:	
  7497  0CFE                     	movlw	01h
  7498  0CFE  3001               	addwf	(___fldiv@b)^080h,f
  7499  0CFF  07B4               	movlw	0
  7500  0D00  3000               	skipnc
  7501  0D01  1803               movlw 1
  7502  0D02  3001               	addwf	(___fldiv@b+1)^080h,f
  7503  0D03  07B5               	movlw	0
  7504  0D04  3000               	skipnc
  7505  0D05  1803               movlw 1
  7506  0D06  3001               	addwf	(___fldiv@b+2)^080h,f
  7507  0D07  07B6               	movlw	0
  7508  0D08  3000               	skipnc
  7509  0D09  1803               movlw 1
  7510  0D0A  3001               	addwf	(___fldiv@b+3)^080h,f
  7511  0D0B  07B7               	line	151
  7512                           	
  7513                           l1881:	
  7514  0D0C                     	btfss	(___fldiv@b+3)^080h,(24)&7
  7515  0D0C  1C37               	goto	u2961
  7516  0D0D  2D0F               	goto	u2960
  7517  0D0E  2D10               u2961:
  7518  0D0F                     	goto	l1887
  7519  0D0F  2D31               u2960:
  7520  0D10                     	line	152
  7521                           	
  7522                           l1883:	
  7523  0D10                     	movf	(___fldiv@b)^080h,w
  7524  0D10  0834               	movwf	(??___fldiv+0)^080h+0
  7525  0D11  00B8               	movf	(___fldiv@b+1)^080h,w
  7526  0D12  0835               	movwf	((??___fldiv+0)^080h+0+1)
  7527  0D13  00B9               	movf	(___fldiv@b+2)^080h,w
  7528  0D14  0836               	movwf	((??___fldiv+0)^080h+0+2)
  7529  0D15  00BA               	movf	(___fldiv@b+3)^080h,w
  7530  0D16  0837               	movwf	((??___fldiv+0)^080h+0+3)
  7531  0D17  00BB               	movlw	01h
  7532  0D18  3001               	movwf	(??___fldiv+4)^080h+0
  7533  0D19  00BC               u2975:
  7534  0D1A                     	rlf	(??___fldiv+0)^080h+3,w
  7535  0D1A  0D3B               	rrf	(??___fldiv+0)^080h+3,f
  7536  0D1B  0CBB               	rrf	(??___fldiv+0)^080h+2,f
  7537  0D1C  0CBA               	rrf	(??___fldiv+0)^080h+1,f
  7538  0D1D  0CB9               	rrf	(??___fldiv+0)^080h+0,f
  7539  0D1E  0CB8               u2970:
  7540  0D1F                     	decfsz	(??___fldiv+4)^080h+0,f
  7541  0D1F  0BBC               	goto	u2975
  7542  0D20  2D1A               	movf	3+(??___fldiv+0)^080h+0,w
  7543  0D21  083B               	movwf	(___fldiv@b+3)^080h
  7544  0D22  00B7               	movf	2+(??___fldiv+0)^080h+0,w
  7545  0D23  083A               	movwf	(___fldiv@b+2)^080h
  7546  0D24  00B6               	movf	1+(??___fldiv+0)^080h+0,w
  7547  0D25  0839               	movwf	(___fldiv@b+1)^080h
  7548  0D26  00B5               	movf	0+(??___fldiv+0)^080h+0,w
  7549  0D27  0838               	movwf	(___fldiv@b)^080h
  7550  0D28  00B4               
  7551                           	line	153
  7552                           	
  7553                           l1885:	
  7554  0D29                     	movlw	01h
  7555  0D29  3001               	addwf	(___fldiv@new_exp)^080h,f
  7556  0D2A  07C2               	skipnc
  7557  0D2B  1803               	incf	(___fldiv@new_exp+1)^080h,f
  7558  0D2C  0AC3               	movlw	0
  7559  0D2D  3000               	addwf	(___fldiv@new_exp+1)^080h,f
  7560  0D2E  07C3               	goto	l1887
  7561  0D2F  2D31               	line	154
  7562                           	
  7563                           l450:	
  7564  0D30                     	goto	l1887
  7565  0D30  2D31               	line	155
  7566                           	
  7567                           l449:	
  7568  0D31                     	line	158
  7569                           	
  7570                           l1887:	
  7571  0D31                     	movf	(___fldiv@new_exp+1)^080h,w
  7572  0D31  0843               	xorlw	80h
  7573  0D32  3A80               	movwf	btemp+1
  7574  0D33  00FF               	movlw	(0)^80h
  7575  0D34  3080               	subwf	btemp+1,w
  7576  0D35  027F               	skipz
  7577  0D36  1D03               	goto	u2985
  7578  0D37  2D3A               	movlw	0FFh
  7579  0D38  30FF               	subwf	(___fldiv@new_exp)^080h,w
  7580  0D39  0242               u2985:
  7581  0D3A                     
  7582                           	skipc
  7583  0D3A  1C03               	goto	u2981
  7584  0D3B  2D3D               	goto	u2980
  7585  0D3C  2D3E               u2981:
  7586  0D3D                     	goto	l1891
  7587  0D3D  2D4D               u2980:
  7588  0D3E                     	line	159
  7589                           	
  7590                           l1889:	
  7591  0D3E                     	movlw	0FFh
  7592  0D3E  30FF               	bsf	status, 5	;RP0=1, select bank1
  7593  0D3F  1683               	bcf	status, 6	;RP1=0, select bank1
  7594  0D40  1303               	movwf	(___fldiv@new_exp)^080h
  7595  0D41  00C2               	movlw	0
  7596  0D42  3000               	movwf	((___fldiv@new_exp)^080h)+1
  7597  0D43  00C3               	line	160
  7598                           	movlw	high highword(0)
  7599  0D44  3000               	movwf	(___fldiv@b+3)^080h
  7600  0D45  00B7               	movlw	low highword(0)
  7601  0D46  3000               	movwf	(___fldiv@b+2)^080h
  7602  0D47  00B6               	movlw	high(0)
  7603  0D48  3000               	movwf	(___fldiv@b+1)^080h
  7604  0D49  00B5               	movlw	low(0)
  7605  0D4A  3000               	movwf	(___fldiv@b)^080h
  7606  0D4B  00B4               
  7607                           	goto	l1891
  7608  0D4C  2D4D               	line	161
  7609                           	
  7610                           l451:	
  7611  0D4D                     	line	164
  7612                           	
  7613                           l1891:	
  7614  0D4D                     	bsf	status, 5	;RP0=1, select bank1
  7615  0D4D  1683               	bcf	status, 6	;RP1=0, select bank1
  7616  0D4E  1303               	movf	(___fldiv@new_exp+1)^080h,w
  7617  0D4F  0843               	xorlw	80h
  7618  0D50  3A80               	movwf	btemp+1
  7619  0D51  00FF               	movlw	(0)^80h
  7620  0D52  3080               	subwf	btemp+1,w
  7621  0D53  027F               	skipz
  7622  0D54  1D03               	goto	u2995
  7623  0D55  2D58               	movlw	01h
  7624  0D56  3001               	subwf	(___fldiv@new_exp)^080h,w
  7625  0D57  0242               u2995:
  7626  0D58                     
  7627                           	skipnc
  7628  0D58  1803               	goto	u2991
  7629  0D59  2D5B               	goto	u2990
  7630  0D5A  2D5C               u2991:
  7631  0D5B                     	goto	l452
  7632  0D5B  2D69               u2990:
  7633  0D5C                     	line	165
  7634                           	
  7635                           l1893:	
  7636  0D5C                     	bsf	status, 5	;RP0=1, select bank1
  7637  0D5C  1683               	bcf	status, 6	;RP1=0, select bank1
  7638  0D5D  1303               	clrf	(___fldiv@new_exp)^080h
  7639  0D5E  01C2               	clrf	(___fldiv@new_exp+1)^080h
  7640  0D5F  01C3               	line	166
  7641                           	
  7642                           l1895:	
  7643  0D60                     	movlw	high highword(0)
  7644  0D60  3000               	movwf	(___fldiv@b+3)^080h
  7645  0D61  00B7               	movlw	low highword(0)
  7646  0D62  3000               	movwf	(___fldiv@b+2)^080h
  7647  0D63  00B6               	movlw	high(0)
  7648  0D64  3000               	movwf	(___fldiv@b+1)^080h
  7649  0D65  00B5               	movlw	low(0)
  7650  0D66  3000               	movwf	(___fldiv@b)^080h
  7651  0D67  00B4               
  7652                           	line	168
  7653                           	
  7654                           l1897:	
  7655  0D68                     	clrf	(___fldiv@sign)^080h
  7656  0D68  01BD               	line	169
  7657                           	
  7658                           l452:	
  7659  0D69                     	line	172
  7660                           	bsf	status, 5	;RP0=1, select bank1
  7661  0D69  1683               	bcf	status, 6	;RP1=0, select bank1
  7662  0D6A  1303               	movf	(___fldiv@new_exp)^080h,w
  7663  0D6B  0842               	movwf	(??___fldiv+0)^080h+0
  7664  0D6C  00B8               	movf	(??___fldiv+0)^080h+0,w
  7665  0D6D  0838               	movwf	(___fldiv@bexp)^080h
  7666  0D6E  00C8               	line	174
  7667                           	
  7668                           l1899:	
  7669  0D6F                     	btfss	(___fldiv@bexp)^080h,(0)&7
  7670  0D6F  1C48               	goto	u3001
  7671  0D70  2D72               	goto	u3000
  7672  0D71  2D73               u3001:
  7673  0D72                     	goto	l1903
  7674  0D72  2D75               u3000:
  7675  0D73                     	line	175
  7676                           	
  7677                           l1901:	
  7678  0D73                     	bsf	0+(___fldiv@b)^080h+02h+(7/8),(7)&7
  7679  0D73  17B6               	line	176
  7680                           	goto	l454
  7681  0D74  2D79               	line	178
  7682                           	
  7683                           l453:	
  7684  0D75                     	line	179
  7685                           	
  7686                           l1903:	
  7687  0D75                     	movlw	low(07Fh)
  7688  0D75  307F               	movwf	(??___fldiv+0)^080h+0
  7689  0D76  00B8               	movf	(??___fldiv+0)^080h+0,w
  7690  0D77  0838               	andwf	0+(___fldiv@b)^080h+02h,f
  7691  0D78  05B6               	line	180
  7692                           	
  7693                           l454:	
  7694  0D79                     	line	181
  7695                           	movf	(___fldiv@bexp)^080h,w
  7696  0D79  0848               	movwf	(??___fldiv+0)^080h+0
  7697  0D7A  00B8               	clrc
  7698  0D7B  1003               	rrf	(??___fldiv+0)^080h+0,w
  7699  0D7C  0C38               	movwf	(??___fldiv+1)^080h+0
  7700  0D7D  00B9               	movf	(??___fldiv+1)^080h+0,w
  7701  0D7E  0839               	movwf	0+(___fldiv@b)^080h+03h
  7702  0D7F  00B7               	line	182
  7703                           	movf	(___fldiv@sign)^080h,w
  7704  0D80  083D               	movwf	(??___fldiv+0)^080h+0
  7705  0D81  00B8               	movf	(??___fldiv+0)^080h+0,w
  7706  0D82  0838               	iorwf	0+(___fldiv@b)^080h+03h,f
  7707  0D83  04B7               	line	183
  7708                           	
  7709                           l1905:	
  7710  0D84                     	movf	(___fldiv@b+3)^080h,w
  7711  0D84  0837               	movwf	(?___fldiv+3)^080h
  7712  0D85  00B3               	movf	(___fldiv@b+2)^080h,w
  7713  0D86  0836               	movwf	(?___fldiv+2)^080h
  7714  0D87  00B2               	movf	(___fldiv@b+1)^080h,w
  7715  0D88  0835               	movwf	(?___fldiv+1)^080h
  7716  0D89  00B1               	movf	(___fldiv@b)^080h,w
  7717  0D8A  0834               	movwf	(?___fldiv)^080h
  7718  0D8B  00B0               
  7719                           	goto	l432
  7720  0D8C  2D8D               	
  7721                           l1907:	
  7722  0D8D                     	line	184
  7723                           	
  7724                           l432:	
  7725  0D8D                     	return
  7726  0D8D  0008               	opt stack 0
  7727                           GLOBAL	__end_of___fldiv
  7728                           	__end_of___fldiv:
  7729  0D8E                     	signat	___fldiv,8316
  7730                           global	___latbits
  7731                           ___latbits	equ	2
  7732  0002                     	global	btemp
  7733                           	btemp set 07Eh
  7734  007E                     
  7735                           	DABS	1,126,2	;btemp
  7736                           	global	wtemp0
  7737                           	wtemp0 set btemp+0
  7738  007E                     	end


Data Sizes:
    Strings     0
    Constant    20
    Data        0
    BSS         2
    Persistent  0
    Stack       0

Auto Spaces:
    Space          Size  Autos    Used
    COMMON           14     14      14
    BANK0            80     77      79
    BANK1            80     66      66
    BANK3            96      0       0
    BANK2            96      0       0

Pointer List with Targets:

    frexp@eptr	PTR int  size(1) Largest target is 2
		 -> trunc@expon(BANK0[2]), 


Critical Paths under _main in COMMON

    _main->___flmul
    _main->___lwdiv
    _round->___flmul
    ___fltol->___flmul
    ___lwdiv->___lwmod
    ___flmul->__Umul8_16
    ___fldiv->___flmul

Critical Paths under _main in BANK0

    _main->_round
    _round->___fladd
    _trunc->___xxtofl
    ___xxtofl->___fltol
    ___fltol->___flmul
    ___flneg->_trunc
    ___fladd->___flneg
    ___fldiv->_round

Critical Paths under _main in BANK1

    _main->___fldiv
    _round->___fladd
    ___fldiv->_round

Critical Paths under _main in BANK3

    None.

Critical Paths under _main in BANK2

    None.

Call Graph Tables:

 ---------------------------------------------------------------------------------
 (Depth) Function   	        Calls       Base Space   Used Autos Params    Refs
 ---------------------------------------------------------------------------------
 (0) _main                                                24    24      0   12271
                                             42 BANK1     24    24      0
                            ___fldiv
                             ___flge
                            ___flmul
                            ___fltol
                            ___lwdiv
                            ___lwmod
                             ___wmul
                           ___xxtofl
                              _round
 ---------------------------------------------------------------------------------
 (1) _round                                                8     4      4    4329
                                             73 BANK0      4     0      4
                                             12 BANK1      4     4      0
                            ___fladd
                            ___flmul (ARG)
                            ___flneg
                              _trunc
 ---------------------------------------------------------------------------------
 (2) _trunc                                               11     7      4    1606
                                             46 BANK0     11     7      4
                            ___fltol
                           ___xxtofl
                              _frexp
 ---------------------------------------------------------------------------------
 (3) _frexp                                                7     2      5     360
                                              0 COMMON     7     2      5
 ---------------------------------------------------------------------------------
 (3) ___xxtofl                                            14    10      4     474
                                             32 BANK0     14    10      4
                            ___fltol (ARG)
                             ___wmul (ARG)
 ---------------------------------------------------------------------------------
 (3) ___fltol                                             11     7      4     457
                                             21 BANK0     11     7      4
                            ___flmul (ARG)
 ---------------------------------------------------------------------------------
 (2) ___flneg                                              4     0      4     121
                                             57 BANK0      4     0      4
                              _trunc (ARG)
 ---------------------------------------------------------------------------------
 (2) ___fladd                                             24    16      8    2414
                                             61 BANK0     12     4      8
                                              0 BANK1     12    12      0
                            ___flneg (ARG)
                              _trunc (ARG)
 ---------------------------------------------------------------------------------
 (1) ___wmul                                               6     2      4     244
                                              0 COMMON     6     2      4
 ---------------------------------------------------------------------------------
 (1) ___lwmod                                              6     2      4    1071
                                              0 COMMON     6     2      4
 ---------------------------------------------------------------------------------
 (1) ___lwdiv                                              8     4      4     770
                                              6 COMMON     8     4      4
                            ___lwmod (ARG)
 ---------------------------------------------------------------------------------
 (1) ___flmul                                             26    18      8    2721
                                              9 COMMON     5     5      0
                                              0 BANK0     21    13      8
                          __Umul8_16
 ---------------------------------------------------------------------------------
 (2) __Umul8_16                                            9     7      2     799
                                              0 COMMON     9     7      2
 ---------------------------------------------------------------------------------
 (1) ___flge                                              16     8      8     460
                                              0 COMMON     8     0      8
                                              0 BANK0      8     8      0
 ---------------------------------------------------------------------------------
 (1) ___fldiv                                             26    18      8    1379
                                             16 BANK1     26    18      8
                            ___flmul (ARG)
                             ___wmul (ARG)
                           ___xxtofl (ARG)
                              _round (ARG)
 ---------------------------------------------------------------------------------
 Estimated maximum stack depth 3
 ---------------------------------------------------------------------------------

 Call Graph Graphs:

 _main (ROOT)
   ___fldiv
     ___flmul (ARG)
       __Umul8_16
     ___wmul (ARG)
     ___xxtofl (ARG)
       ___fltol (ARG)
         ___flmul (ARG)
           __Umul8_16
       ___wmul (ARG)
     _round (ARG)
       ___fladd
         ___flneg (ARG)
           _trunc (ARG)
             ___fltol
               ___flmul (ARG)
                 __Umul8_16
             ___xxtofl
               ___fltol (ARG)
                 ___flmul (ARG)
                   __Umul8_16
               ___wmul (ARG)
             _frexp
         _trunc (ARG)
           ___fltol
             ___flmul (ARG)
               __Umul8_16
           ___xxtofl
             ___fltol (ARG)
               ___flmul (ARG)
                 __Umul8_16
             ___wmul (ARG)
           _frexp
       ___flmul (ARG)
         __Umul8_16
       ___flneg (ARG)
         _trunc (ARG)
           ___fltol
             ___flmul (ARG)
               __Umul8_16
           ___xxtofl
             ___fltol (ARG)
               ___flmul (ARG)
                 __Umul8_16
             ___wmul (ARG)
           _frexp
       _trunc (ARG)
         ___fltol
           ___flmul (ARG)
             __Umul8_16
         ___xxtofl
           ___fltol (ARG)
             ___flmul (ARG)
               __Umul8_16
           ___wmul (ARG)
         _frexp
   ___flge
   ___flmul
     __Umul8_16
   ___fltol
     ___flmul (ARG)
       __Umul8_16
   ___lwdiv
     ___lwmod (ARG)
   ___lwmod
   ___wmul
   ___xxtofl
     ___fltol (ARG)
       ___flmul (ARG)
         __Umul8_16
     ___wmul (ARG)
   _round
     ___fladd
       ___flneg (ARG)
         _trunc (ARG)
           ___fltol
             ___flmul (ARG)
               __Umul8_16
           ___xxtofl
             ___fltol (ARG)
               ___flmul (ARG)
                 __Umul8_16
             ___wmul (ARG)
           _frexp
       _trunc (ARG)
         ___fltol
           ___flmul (ARG)
             __Umul8_16
         ___xxtofl
           ___fltol (ARG)
             ___flmul (ARG)
               __Umul8_16
           ___wmul (ARG)
         _frexp
     ___flmul (ARG)
       __Umul8_16
     ___flneg (ARG)
       _trunc (ARG)
         ___fltol
           ___flmul (ARG)
             __Umul8_16
         ___xxtofl
           ___fltol (ARG)
             ___flmul (ARG)
               __Umul8_16
           ___wmul (ARG)
         _frexp
     _trunc (ARG)
       ___fltol
         ___flmul (ARG)
           __Umul8_16
       ___xxtofl
         ___fltol (ARG)
           ___flmul (ARG)
             __Umul8_16
         ___wmul (ARG)
       _frexp

 Address spaces:
Name               Size   Autos  Total    Cost      Usage
BITCOMMON            E      0       0       0        0.0%
EEDATA             100      0       0       0        0.0%
NULL                 0      0       0       0        0.0%
CODE                 0      0       0       0        0.0%
COMMON               E      E       E       1      100.0%
BITSFR0              0      0       0       1        0.0%
SFR0                 0      0       0       1        0.0%
BITSFR1              0      0       0       2        0.0%
SFR1                 0      0       0       2        0.0%
STACK                0      0       0       2        0.0%
ABS                  0      0      9F       3        0.0%
BITBANK0            50      0       0       4        0.0%
BITSFR3              0      0       0       4        0.0%
SFR3                 0      0       0       4        0.0%
BANK0               50     4D      4F       5       98.8%
BITSFR2              0      0       0       5        0.0%
SFR2                 0      0       0       5        0.0%
BITBANK1            50      0       0       6        0.0%
BANK1               50     42      42       7       82.5%
BITBANK3            60      0       0       8        0.0%
BANK3               60      0       0       9        0.0%
BITBANK2            60      0       0      10        0.0%
BANK2               60      0       0      11        0.0%
DATA                 0      0      9F      12        0.0%


Microchip Technology PIC Macro Assembler V1.45 build -152302408 
Symbol Table                                                                                   Wed Jun 30 11:25:01 2021

           ___fldiv@aexp 00C9             ___fldiv@bexp 00C8                        pc 0002  
           ___fldiv@sign 00BD              __CFG_CP$OFF 0000                       l41 0DAC  
                     l42 0DB3                       l43 0DB3                       l44 0DB8  
                     l45 0F36                       l46 0FD0                       l47 0FFC  
                     l48 0FFD                       l49 0FFD                       _GO 00F9  
            main@Re_Vout 00DA                       fsr 0004      ___wmul@multiplicand 0072  
    __Umul8_16@word_mpld 0076                      l132 081F                      l133 0829  
                    l134 083E                      l135 0843                      l400 073A  
                    l401 073D                      l410 07BD                      l402 0745  
                    l411 07D9                      l403 074B                      l260 0AE4  
                    l404 0763                      l500 0065                      l261 0B01  
                    l341 0933                      l413 07C9                      l405 075A  
                    l501 007A                      l430 0BEA                      l262 0B37  
                    l342 0905                      l414 07D8                      l406 0762  
                    l510 00C1                      l502 0096                      l431 0C08  
                    l423 0B9C                      l263 0B6D                      l343 08F9  
                    l351 08E8                      l415 07DF                      l407 0761  
                    l271 0A49                      l511 00E4                      l503 007B  
                    l440 0CAF                      l432 0D8D                      l424 0BB2  
                    l264 0B88                      l344 090A                      l352 08C2  
                    l416 07E7                      l408 07BE                      l280 0AA3  
                    l272 0AC5                      l504 009D                      l441 0CCF  
                    l433 0C1F                      l425 0BAF                      l345 090B  
                    l353 08B6                      l417 07F7                      l409 07BE  
                    l281 0AB4                      l273 0A92                      l505 00AA  
                    l450 0D30                      l442 0CB0                      l434 0C9E  
                    l426 0BBB                      l514 084F                      l346 0924  
                    l354 08C7                      l370 04AE                      l282 0AC5  
                    l274 0A7E                      l506 009E                      l522 087E  
                    l451 0D4D                      l443 0CBF                      l435 0C50  
                    l427 0BCC                      l515 0859                      l347 0932  
                    l355 08C8                      l371 04BE                      l267 081A  
                    l275 0A7F                      l523 08AC                      l363 0A29  
                    l452 0D69                      l444 0CD4                      l436 0C77  
                    l428 0BE2                      l516 0868                      l460 0116  
                    l348 0938                      l356 08D9                      l380 05B0  
                    l372 04D4                      l268 081B                      l276 0A91  
                    l508 00B5                      l453 0D75                      l445 0CF9  
                    l437 0C6D                      l429 0BDF                      l517 086D  
                    l461 0114                      l357 08E7                      l381 05C1  
                    l373 04D1                      l277 0AB5                      l509 00B5  
                    l454 0D79                      l446 0CF0                      l438 0C99  
                    l470 0462                      l462 011F                      l358 08ED  
                    l390 062A                      l382 05C4                      l374 04DC  
                    l366 047E                      l278 0AA2                      l447 0CF8  
                    l439 0CA5                      l471 03A4                      l463 0130  
                    l391 0630                      l383 05CA                      l375 0568  
                    l367 0494                      l279 0AAE                      l448 0CF7  
                    l480 0405                      l472 0385                      l464 0145  
                    l392 074C                      l384 05E9                      l376 04EF  
                    l368 0491                      l449 0D31                      l481 041E  
                    l473 0394                      l465 0143                      l393 06F7  
                    l385 0647                      l377 05AF                      l369 049D  
                    l482 0455                      l474 03A9                      l466 014E  
                    l394 06F6                      l386 05FC                      l378 05E9  
                    l490 095C                      l483 0439                      l475 03CE  
                    l467 0163                      l459 0101                      l395 0705  
                    l387 07F7                      l379 05E0                      l491 0996  
                    l484 0455                      l476 03C5                      l396 071C  
                    l388 0646                      l492 0966                      l485 044D  
                    l477 03CD                      l469 0159                      l397 0746  
                    l389 0627                      l478 03CC                      l398 071D  
                    l479 0406                      l399 0733                      l495 0046  
                    l496 004E                      l497 0060                      l498 00ED  
                    l499 0073             __CFG_CPD$OFF 0000                      fsr0 0004  
                    indf 0000             __CFG_FOSC$HS 0000             ___flmul@aexp 002D  
           ___flmul@bexp 002E             ___flmul@sign 0028             ___flmul@temp 0033  
           ___flmul@prod 002F             __CFG_LVP$OFF 0000             ___fltol@exp1 003F  
                   l2001 0394                     l2011 03AE                     l2003 039D  
                   l2021 03E1                     l2013 03C2                     l2005 03A4  
                   l2101 0FBC                     l2031 041E                     l2023 03E5  
                   l2015 03C9                     l2007 03A9                     l2103 0FD0  
                   l2041 044B                     l2033 042D                     l2025 03FE  
                   l2017 03CE                     l2009 03AA                     l1401 0036  
                   l2105 0FDD                     l2043 044D                     l2035 0437  
                   l2019 03D3                     l2027 0406                     l1411 0065  
                   l1403 0046                     l2107 0FEC                     l2051 0D92  
                   l1341 0B85                     l2045 0459                     l2037 0439  
                   l2029 0413                     l1501 04C3                     l1421 009E  
                   l1413 0073                     l1405 0056                     l2061 0D9D  
                   l2053 0D93                     l1343 0B87                     l2047 0462  
                   l2039 0447                     l1511 04E2                     l1503 04C8  
                   l1351 0A49                     l1431 00D9                     l1423 00AA  
                   l1415 007B                     l1407 005F                     l2071 0DAC  
                   l2063 0D9E                     l2055 0D96                     l1601 070D  
                   l1521 0507                     l1513 04E6                     l1505 04D1  
                   l1441 080D                     l1361 0A6D                     l1353 0A5E  
                   l1345 0A2A                     l1433 00DE                     l1425 00AE  
                   l1417 007F                     l1409 0060                     l2081 0E83  
                   l2073 0DAF                     l2065 0DA2                     l2057 0D99  
                   l2049 0D8E                     l1611 0732                     l1603 0712  
                   l1531 052F                     l1523 050F                     l1515 04EF  
                   l1507 04D2                     l1443 0817                     l1371 0A98  
                   l1363 0A74                     l1355 0A5F                     l1347 0A3F  
                   l1435 00E2                     l1427 00B9                     l1419 008D  
                   l1451 094C                     l2091 0F15                     l2083 0E9C  
                   l2075 0DB8                     l2067 0DA6                     l2059 0D9C  
                   l1701 0AF8                     l1613 0737                     l1605 071B  
                   l1621 0746                     l1541 0557                     l1533 0537  
                   l1525 0517                     l1517 04F7                     l1509 04D4  
                   l1445 081A                     l1373 0AA1                     l1365 0A7D  
                   l1357 0A67                     l1349 0A48                     l1437 00E4  
                   l1429 00C3                     l1381 086E                     l1461 0966  
                   l1453 0952                     l2085 0EDC                     l2093 0F36  
                   l2077 0DBE                     l2069 0DA9                     l1711 0B6D  
                   l1703 0B01                     l1631 075E                     l1615 073A  
                   l1607 071D                     l1623 074C                     l1551 05B4  
                   l1543 055F                     l1535 053F                     l1527 051F  
                   l1519 04FF                     l1471 0478                     l1447 081B  
                   l1375 0AA3                     l1367 0A7F                     l1359 0A69  
                   l1439 00ED                     l1391 08A6                     l1383 0876  
                   l1463 098D                     l1455 095B                     l2095 0F76  
                   l2087 0EEF                     l2079 0E1E                     l1801 0BD1  
                   l1721 0B88                     l1713 0B6F                     l1705 0B05  
                   l1641 07B4                     l1633 0763                     l1625 074D  
                   l1617 073D                     l1609 072C                     l1561 05D9  
                   l1553 05C1                     l1537 0547                     l1529 0527  
                   l1545 0568                     l1481 0491                     l1473 047C  
                   l1377 0AB5                     l1369 0A92                     l1393 08AA  
                   l1385 087D                     l1465 0996                     l1457 095C  
                   l1449 0939                     l2097 0F89                     l2089 0F02  
                   l1811 0BF2                     l1803 0BD6                     l1715 0B71  
                   l1707 0B37                     l1731 0900                     l1723 08EE  
                   l1651 07D9                     l1643 07C3                     l1635 0768  
                   l1627 0751                     l1619 0742                     l1571 05FC  
                   l1555 05C4                     l1563 05E0                     l1547 0569  
                   l1539 054F                     l1491 04AC                     l1483 0492  
                   l1475 047E                     l1467 0463                     l1379 0ABA  
                   l1395 08AC                     l1387 087E                     l1459 0965  
                   l2099 0FA9                     l1901 0D73                     l1821 0C1F  
                   l1813 0C07                     l1805 0BDF                     l1717 0B83  
                   l1709 0B3B                     l1661 0845                     l1741 0924  
                   l1733 0905                     l1725 08F0                     l1653 07DD  
                   l1645 07C9                     l1637 0776                     l1629 0757  
                   l1581 062A                     l1573 0613                     l1565 05ED  
                   l1557 05C8                     l1549 058B                     l1493 04AE  
                   l1477 0483                     l1485 0494                     l1469 046E  
                   l1397 002D                     l1389 0899                     l1903 0D75  
                   l1831 0C50                     l1823 0C36                     l1815 0C08  
                   l1807 0BE0                     l1719 0B85                     l1671 0868  
                   l1663 0847                     l1911 00F5                     l1743 092B  
                   l1735 090B                     l1727 08F6                     l1751 08B3  
                   l1655 07DF                     l1647 07D1                     l1639 077A  
                   l1591 065D                     l1583 062E                     l1575 0617  
                   l1567 05F2                     l1559 05CA                     l1495 04B8  
                   l1487 049D                     l1479 0488                     l1399 0032  
                   l1905 0D84                     l1833 0C55                     l1841 0C77  
                   l1825 0C3E                     l1817 0C0D                     l1809 0BE2  
                   l1673 086D                     l1665 084F                     l1921 010B  
                   l1913 00FB                     l1737 091C                     l1729 08F9  
                   l1745 0933                     l1761 08D2                     l1753 08B6  
                   l1657 07F2                     l1649 07D6                     l1593 06E0  
                   l1585 0630                     l1577 061B                     l1569 05FB  
                   l1497 04BC                     l1489 04A6                     l1681 0A29  
                   l1907 0D8D                     l1851 0CA5                     l1843 0C89  
                   l1835 0C67                     l1827 0C46                     l1819 0C1E  
                   l1771 0B89                     l1667 0853                     l1931 012A  
                   l1923 0114                     l1915 00FF                     l1747 0938  
                   l1739 0922                     l1763 08D9                     l1755 08BD  
                   l1691 0837                     l1683 081C                     l1659 07F6  
                   l1595 06E2                     l1587 063F                     l1579 0627  
                   l1499 04BE                     l1675 0997                     l1861 0CBF  
                   l1853 0CAD                     l1845 0C8A                     l1837 0C6B  
                   l1829 0C4E                     l1781 0BA1                     l1773 0B90  
                   l1669 0862                     l1941 0143                     l1933 012E  
                   l1925 0116                     l1917 0101                     l1909 00EE  
                   l1765 08E0                     l1757 08C2                     l1749 08AD  
                   l1693 083E                     l1685 081F                     l1597 06E7  
                   l1589 0647                     l1677 09E4                     l1871 0CD9  
                   l1863 0CC8                     l1855 0CB0                     l1847 0C99  
                   l1839 0C6D                     l1791 0BBB                     l1783 0BA6  
                   l1775 0B96                     l1951 0162                     l1943 0145  
                   l1935 0130                     l1927 011F                     l1919 0106  
                   l1759 08C8                     l1767 08E8                     l1695 0843  
                   l1687 0823                     l1599 06F7                     l1679 0A11  
                   l1881 0D0C                     l1873 0CED                     l1857 0CB9  
                   l1865 0CCF                     l1849 0C9E                     l1793 0BC0  
                   l1785 0BAF                     l1777 0B9A                     l1697 0AC6  
                   l1961 01B9                     l1953 0163                     l1945 014E  
                   l1937 0135                     l1929 0124                     l1769 08ED  
                   l1689 0830                     l1891 0D4D                     l1883 0D10  
                   l1875 0CF4                     l1867 0CD4                     l1859 0CBD  
                   l1795 0BC6                     l1787 0BB0                     l1779 0B9C  
                   l1699 0ADC                     l1971 0236                     l1963 01E5  
                   l1955 0173                     l1947 0153                     l1939 013A  
                   l1893 0D5C                     l1885 0D29                     l1877 0CF9  
                   l1869 0CD5                     l1797 0BCA                     l1789 0BB2  
                   l1981 02B6                     l1973 0253                     l1965 0201  
                   l1957 0180                     l1949 0159                     l1895 0D60  
                   l1879 0CFE                     l1887 0D31                     l1799 0BCC  
                   l1991 036E                     l1983 02E3                     l1975 0263  
                   l1967 021D                     l1959 019D                     l1897 0D68  
                   l1889 0D3E                     l1993 0377                     l1985 02F3  
                   l1977 0280                     l1969 0226                     l1899 0D6F  
                   l1995 0385                     l1987 0320                     l1979 0299  
                   l1997 038E                     l1989 0346                     l1999 0392  
                   _ADFM 04FF                     u2000 0483                     u2001 0482  
                   u2010 0488                     u2011 0487                     u2100 0597  
                   u2020 04AC                     u2021 04AB                     u2110 05B4  
                   u2030 04BC                     u2111 05B3                     u2031 04BB  
                   u3000 0D73                     u2200 062E                     u2120 05C8  
                   u2040 04C3                     u3001 0D72                     u2201 062D  
                   u2121 05C7                     u2041 04C2                     u3010 00FF  
                   u2050 04C8                     u3011 00FE                     u2051 04C7  
                   u3020 0106                     u2300 0737                     u2220 065D  
                   u2140 05E8                     u2060 04E2                     u3101 01C7  
                   u3021 0105                     u2301 0736                     u2221 065C  
                   u2141 05E7                     u2061 04E1                     u3102 01CE  
                   u3030 010B                     u2310 0742                     u2230 06A5  
                   u2150 05ED                     u2070 04E6                     u3111 01F3  
                   u3103 01D5                     u3031 010A                     u2311 0741  
                   u2231 06A6                     u2223 0659                     u2215 0634  
                   u2151 05EC                     u2135 05CE                     u2071 04E5  
                   u3200 032C                     u3112 01FA                     u3040 012E  
                   u2400 07C3                     u2320 074A                     u2240 06B7  
                   u2232 06AB                     u2160 05F2                     u2080 058B  
                   u3121 020F                     u3113 0201                     u3041 012D  
                   u2401 07C2                     u2321 0749                     u2241 06B8  
                   u2233 06AC                     u2161 05F1                     u2081 058A  
                   u3122 0216                     u3050 0135                     u2410 07C8  
                   u2330 0751                     u2250 06E7                     u2242 06BD  
                   u2090 0596                     u3211 0338                     u3123 021D  
                   u3051 0134                     u2411 07C7                     u2331 0750  
                   u2251 06E6                     u2243 06BE                     u2171 0605  
                   u2091 0594                     u3300 03C2                     u3220 0354  
                   u3212 033F                     u3060 013A                     u2420 07D6  
                   u2340 0757                     u2260 070D                     u2180 0617  
                   u2172 060C                     u3301 03C1                     u3213 0346  
                   u3205 0327                     u3141 0245                     u3061 0139  
                   u2421 07D5                     u2341 0756                     u2261 070C  
                   u2181 0616                     u2173 0613                     u2085 0587  
                   u3310 03C9                     u3142 024C                     u3070 0153  
                   u2510 083D                     u2430 07DD                     u2350 075E  
                   u2270 0712                     u2190 061B                     u1710 0A3F  
                   u3311 03C8                     u3231 0360                     u3151 0272  
                   u3143 0253                     u3135 021F                     u3071 0152  
                   u2511 083C                     u2431 07DC                     u2351 075D  
                   u2271 0711                     u2191 061A                     u1711 0A3E  
                   u2520 0ADC                     u3320 03D3                     u3232 0367  
                   u3152 0279                     u3080 0158                     u2440 07F6  
                   u2360 0768                     u1800 0ABA                     u1720 0A57  
                   u2521 0ADB                     u3321 03D2                     u3233 036E  
                   u3225 034F                     u3153 0280                     u3081 0157  
                   u2505 0831                     u2441 07F5                     u2361 0767  
                   u1801 0AB9                     u2530 0AF8                     u2450 0853  
                   u3330 03E5                     u2610 0909                     u2370 077A  
                   u2290 0732                     u1730 0A6D                     u1810 0876  
                   u2531 0AF7                     u2451 0852                     u3331 03E4  
                   u3171 02A8                     u3091 01AB                     u2611 0908  
                   u2371 0779                     u2291 0731                     u1731 0A6C  
                   u1811 0875                     u2540 0B05                     u3340 03F4  
                   u3260 0392                     u3172 02AF                     u3092 01B2  
                   u2380 0797                     u1740 0A74                     u1900 00AE  
                   u1820 0032                     u2541 0B04                     u3261 0391  
                   u3245 0370                     u3181 02D5                     u3173 02B6  
                   u3165 0282                     u3093 01B9                     u2605 08FA  
                   u2285 0721                     u1741 0A73                     u1725 0A52  
                   u1901 00AD                     u1821 0031                     u2550 0B23  
                   u2470 0867                     u3350 0413                     u3182 02DC  
                   u2630 091C                     u2710 08E6                     u2390 07B4  
                   u1910 00B4                     u1830 0036                     u2551 0B24  
                   u2471 0866                     u3351 0412                     u3255 0387  
                   u3191 0302                     u3183 02E3                     u2631 091B  
                   u2711 08E5                     u2391 07B3                     u1911 00B3  
                   u1831 0035                     u2800 0C55                     u2720 0B9A  
                   u2560 0B3B                     u2552 0B29                     u3360 042D  
                   u3280 03A8                     u3192 0309                     u2480 0823  
                   u1760 0A90                     u1920 00B9                     u1840 0056  
                   u2801 0C54                     u2721 0B99                     u2561 0B3A  
                   u2553 0B2A                     u2465 085A                     u3361 042C  
                   u3345 03EF                     u3281 03A7                     u3193 0310  
                   u2625 090C                     u2705 08DA                     u2481 0822  
                   u2385 0792                     u1761 0A8F                     u1921 00B8  
                   u1841 0055                     u2730 0BA1                     u2570 0B59  
                   u3370 044B                     u3290 03AE                     u2650 0931  
                   u1770 0A98                     u1930 00CE                     u2731 0BA0  
                   u2571 0B5A                     u3371 044A                     u3355 040F  
                   u3291 03AD                     u3275 0396                     u2651 0930  
                   u2635 0918                     u1771 0A97                     u1755 0A80  
                   u2740 0BA6                     u2580 0B83                     u2572 0B5F  
                   u2660 08B3                     u1940 00DE                     u1860 0079  
                   u3380 0DB7                     u2741 0BA5                     u2581 0B82  
                   u2573 0B60                     u3365 0429                     u2645 0925  
                   u2661 08B2                     u1941 00DD                     u1861 0078  
                   u3381 0DB6                     u2910 0CD3                     u2830 0C6B  
                   u2750 0BCA                     u2590 08F6                     u1790 0AB3  
                   u1950 00E2                     u3390 0E9C                     u2911 0CD2  
                   u2831 0C6A                     u2815 0C57                     u2751 0BC9  
                   u2591 08F5                     u2495 082A                     u1791 0AB2  
                   u1951 00E1                     u1935 00C9                     u1855 006A  
                   u3391 0E9B                     u2920 0CD9                     u2760 0BD1  
                   u2680 08C6                     u1960 0817                     u1880 009C  
                   u2921 0CD8                     u2905 0CC1                     u2825 0C60  
                   u2761 0BD0                     u2585 0B7F                     u2681 08C5  
                   u1961 0816                     u1785 0AA5                     u1881 009B  
                   u2930 0CED                     u2850 0C89                     u2770 0BD6  
                   u2690 08D2                     u1970 0952                     u2931 0CEC  
                   u2851 0C88                     u2771 0BD5                     u2691 08D1  
                   u2675 08B7                     u1875 008E                     u1971 0951  
                   u2940 0CF4                     u2860 0CA4                     u2780 0BF2  
                   u1980 0965                     u2941 0CF3                     u2861 0CA3  
                   u2845 0C6F                     u2781 0BF1                     u1981 0964  
                   u2950 0CFE                     u2870 0CAD                     u2790 0C0D  
                   u1990 047C                     u2951 0CFD                     u2871 0CAC  
                   u2855 0C85                     u2791 0C0C                     u2695 08CE  
                   u1991 047B                     u1895 00A2                     u2960 0D10  
                   u2961 0D0F                     u2970 0D1F                     u2890 0CBD  
                   u2891 0CBC                     u2980 0D3E                     u2981 0D3D  
                   u2885 0CB2                     u2990 0D5C                     u2991 0D5B  
                   u2975 0D1A                     u2985 0D3A                     u2995 0D58  
           __CFG_WRT$OFF 0000                     _main 0D8E                     btemp 007E  
                   start 0000            __CFG_IESO$OFF 0000          ___fldiv@new_exp 00C2  
            main@storage 00CE            __CFG_MCLRE$ON 0000            ___fltol@sign1 003E  
        __end_of___fladd 07F8                    ?_main 0070          __end_of___fldiv 0D8E  
        __end_of___flneg 081C            __CFG_WDTE$OFF 0000          __end_of___flmul 0463  
        __end_of___fltol 0AC6                    _ANSEL 0188          __end_of___lwdiv 0939  
        __end_of___lwmod 08EE                    _PORTB 0006                    _PORTC 0007  
                  _PORTD 0008                    _TRISB 0086                    _TRISC 0087  
                  _TRISD 0088           __CFG_FCMEN$OFF 0000                    _frexp 086E  
                  _errno 006D                    _round 0997                    _trunc 0939  
         __CFG_BOREN$OFF 0000                    pclath 000A                    status 0003  
        __end_ofmain@led 001D                    wtemp0 007E          __initialization 07F8  
           __end_of_main 1000                   ??_main 00CA                   _ADCON0 001F  
                 _ADCON1 009F                   ?_frexp 0070                   _ADRESH 001E  
                 _ADRESL 009E                   ?_round 0069                   _ANSELH 0189  
                 ?_trunc 004E                   _TRISA0 0428         __end_of___xxtofl 00EE  
         __CFG_PWRTE$OFF 0000                   ___flge 0AC6                ??___fladd 00A0  
                 ___wmul 081C                ??___fldiv 00B8                ??___flneg 007E  
              ??___flmul 0079                ??___fltol 0039                ??___lwdiv 007A  
              ??___lwmod 0074                   main@CH 00D2                   main@DV 00D4  
                 main@TR 00D0       __size_of__Umul8_16 002A                   round@f 00AC  
                 round@x 0069                   trunc@i 0053                   trunc@x 004E  
             ___flge@ff1 0070               ___flge@ff2 0074             ___xxtofl@arg 004A  
           ___xxtofl@exp 0049             ___xxtofl@val 0040  __end_of__initialization 07FC  
             ___flneg@f1 0059               ___fltol@f1 0035           __pcstackCOMMON 0070  
          __end_of_frexp 08AD            __end_of_round 0A2A            __end_of_trunc 0997  
                ??_frexp 0075                  ??_round 007E                  ??_trunc 0052  
             __pbssBANK0 006D        __end_of__Umul8_16 086E               __pmaintext 0D8E  
                ?___flge 0070                  ?___wmul 0070                ?___xxtofl 0040  
             __stringtab 0003          __size_of___flge 00C3                  ___fladd 0463  
                ___fldiv 0B89                  ___flneg 080D                  ___flmul 00EE  
                ___fltol 0A2A          __size_of___wmul 0028                  ___lwdiv 08EE  
                ___lwmod 08AD                  __ptext1 0997                  __ptext2 0939  
                __ptext3 086E                  __ptext4 002A                  __ptext5 0A2A  
                __ptext6 080D                  __ptext7 0463                  __ptext8 081C  
                __ptext9 08AD               ??___xxtofl 0044                  main@led 0009  
   end_of_initialization 07FC              ___fladd@grs 0068            ___xxtofl@sign 0048  
            ___fldiv@grs 00C4              ___fldiv@rem 00BE              ___flmul@grs 0029  
         __end_of___flge 0B89           __end_of___wmul 0844      start_initialization 07F8  
             frexp@value 0070                 ??___flge 0020                 ??___wmul 0074  
              __Umul8_16 0844                ___fladd@a 0061                ___fladd@b 005D  
              ___fldiv@a 00B0                ___fldiv@b 00B4                ___flmul@a 0024  
              ___flmul@b 0020                ___latbits 0002            __pcstackBANK0 0020  
          __pcstackBANK1 00A0        __size_of___xxtofl 00C4         ___lwdiv@dividend 0078  
               ?___fladd 005D                 ?___fldiv 00B0                 ?___flneg 0059  
               ?___flmul 0020                 ?___fltol 0035               ?__Umul8_16 0070  
               ?___lwdiv 0076                 ?___lwmod 0070                __pstrings 0003  
       ___lwdiv@quotient 007B           __size_of_frexp 003F           __size_of_round 0093  
         __size_of_trunc 005E           ___wmul@product 0074              __stringbase 0008  
      ___wmul@multiplier 0070                frexp@eptr 0074              ??__Umul8_16 0072  
       __size_of___fladd 0395         __size_of___fldiv 0205         __size_of___flneg 000F  
       __size_of___flmul 0375         __size_of___fltol 009C         __size_of___lwdiv 004B  
       __size_of___lwmod 0041       __end_of__stringtab 0009                 ___xxtofl 002A  
               _main$543 00DE          ___lwdiv@divisor 0076          ___lwdiv@counter 007D  
               __ptext10 08EE                 __ptext11 00EE                 __ptext12 0844  
               __ptext13 0AC6                 __ptext14 0B89        __CFG_BOR4V$BOR40V 0000  
             trunc@expon 0057            __size_of_main 0272                 main@Vout 00D6  
               main@temp 00E0         ___lwmod@dividend 0072                stringcode 0003  
 __Umul8_16@multiplicand 0070          ___lwmod@divisor 0070          ___lwmod@counter 0075  
               stringdir 0003                 stringtab 0003            ___fladd@signs 0065  
           ___fladd@aexp 0066             ___fladd@bexp 0067     __Umul8_16@multiplier 0078  
      __Umul8_16@product 0074  
